(dp1
S'dictionary'
p2
(ilda.Dictionary
Dictionary
p3
(dp4
S'specialCharacters'
p5
c__builtin__
set
p6
((ltRp7
sS'stopwords'
p8
g6
((ltRp9
sS'ids'
p10
ccopy_reg
_reconstructor
p11
(cgensim.corpora.dictionary
Dictionary
p12
c__builtin__
object
p13
NtRp14
(dp15
S'num_docs'
p16
I0
sS'token2id'
p17
(dp18
sS'dfs'
p19
(dp20
sS'num_nnz'
p21
I0
sS'id2token'
p22
(dp23
sS'num_pos'
p24
I0
sbsS'words'
p25
g6
((ltRp26
sbsS'topics'
p27
(ilda.entities
entities
p28
(dp29
S'predefined'
p30
(lp31
S'armed conflict'
p32
aS'environment'
p33
aS'justice'
p34
aS'freedom'
p35
aS'family'
p36
aS'migrants'
p37
aS'health'
p38
aS'child'
p39
aS'racism'
p40
aS'corruption'
p41
aS'culture'
p42
aS'climate'
p43
aS'discrimination'
p44
aS'economy'
p45
aS'internet'
p46
aS'journalists'
p47
aS'peace'
p48
aS'poverty'
p49
aS'privacy'
p50
aS'religion'
p51
aS'slavery'
p52
aS'self determination'
p53
aS'sexual violence'
p54
aS'women'
p55
aS'torture'
p56
aS'violence'
p57
aS'water'
p58
aS'trafficking'
p59
aS'terrorism'
p60
aS'education'
p61
aS'indigenous people'
p62
asS'PERSON'
p63
(lp64
sS'LOCATION'
p65
(lp66
sS'ORGANIZATION'
p67
(lp68
sbsS'collection'
p69
(lp70
(ilda.document
document
p71
(dp72
S'title'
p73
S'6thSpecialSession_Resolution.html'
p74
sg5
g6
((lp75
V,
aV''
p76
aV/head
p77
aV!
aV#
aV/i
p78
aV&
aV)
aV(
aV*
aV/b
p79
aV.
aV;
aV:
aV/p
p80
aV``
p81
aV4.01
p82
aVge.08-10287
p83
aV/title
p84
aV//www.w3.org/tr/html4/loose.dtd
p85
aVs-6/
p86
aV/html
p87
aVtext/html
p88
aVtransitional//en
p89
aV-//w3c//dtd
p90
aVa/hrc/s-6/l.1
p91
aV/body
p92
atRp93
sS'text'
p94
V<!DOCTYPE html PUBLIC "-//W3C//DTD HTML 4.01 Transitional//EN"\u000a"http://www.w3.org/TR/html4/loose.dtd">\u000a<html><head><title>untitled</title>\u000a<meta http-equiv="Content-Type" content="text/html; charset=UTF-8">\u000a</head>\u000a<body><p>GE.08-10287  (E)    230108 \u000a</p>\u000a<p><b>UNITED \u000aNATIONS \u000a</b></p>\u000a<p> <b>A \u000a</b> \u000a</p>\u000a<p><b>General Assembly</b> Distr. \u000aLIMITED \u000a</p>\u000a<p>A/HRC/S-6/L.1 \u000a23 January 2008 \u000a</p>\u000a<p>Original:  ENGLISH \u000a</p>\u000a<p> \u000a</p>\u000a<p>HUMAN RIGHTS COUNCIL \u000aSixth special session \u000a</p>\u000a<p><b>Pakistan (on behalf of the Organization of the Islamic Conference) and the Syrian  \u000aArab Republic</b>* <b>(on behalf of the Group of Arab States): draft resolution \u000a</b></p>\u000a<p><b>S-6/&#8230; Human rights violations emanating from Israeli military attacks and  \u000aincursions, in the Occupied Palestinian Territory, particularly in the  \u000aoccupied Gaza Strip  \u000a</b></p>\u000a<p><i> The Human Rights Council</i>, \u000a</p>\u000a<p><i> Guided</i> by the principles and objectives of the Charter of the United Nations, the Universal \u000aDeclaration of Human Rights and the International Covenants on Human Rights, \u000a</p>\u000a<p><i> Affirming</i> the applicability of the Fourth Geneva Convention relative to the Protection of \u000aCivilian Persons in Time of War, of 12 August 1949, to the Occupied Palestinian Territory, \u000aincluding East Jerusalem, \u000a</p>\u000a<p><i> Recognizing</i> that the Israeli military attacks and incursions in the Occupied Palestinian \u000aTerritory, particularly the recent ones in the occupied Gaza Strip and the West Bank city of \u000aNablus, constitute grave violations of the human and humanitarian rights of the Palestinian \u000acivilians therein, exacerbate the severe humanitarian crisis in the Occupied Palestinian Territory \u000a</p>\u000a<p>                                                 \u000a</p>\u000a<p>*  Non-member State of the Human Rights Council. </p>\u000a\u000a<p>A/HRC/S-6/L.1 \u000apage 2 \u000a \u000a</p>\u000a<p>and undermine international efforts, including the Annapolis Conference and the Paris Donors&#8217; \u000aConference for the Palestinian State, aimed at invigorating the peace process and establishing a \u000aviable, contiguous, sovereign and independent Palestinian State by the end of 2008, \u000a</p>\u000a<p><i> Recognizing</i> <i>also</i> that the Israeli siege imposed on the occupied Gaza Strip, including the \u000aclosure of the border crossings and the cutting of the supply of fuel, food and medicine, \u000aconstitutes collective punishment of the Palestinian civilians and leads to disastrous humanitarian \u000aand environmental consequences, \u000a</p>\u000a<p> 1. <i>Expresses grave concern</i> at the repeated Israeli military attacks carried out in the \u000aOccupied Palestinian Territory, particularly in the occupied Gaza Strip, which have resulted in \u000aloss of life and injuries among Palestinian civilians, including women and children; \u000a</p>\u000a<p> 2. <i>Calls</i> <i>for</i> urgent international action to put an immediate end to the grave violations \u000acommitted by the occupying Power, Israel, in the Occupied Palestinian Territory, including the \u000aseries of incessant and repeated Israeli military attacks and incursions therein and the siege of the \u000aoccupied Gaza Strip; \u000a</p>\u000a<p> 3. <i>Demands</i> that the occupying Power, Israel, lift immediately the siege it has imposed \u000aon the occupied Gaza Strip, restore continued supply of fuel, food and medicine and reopen the \u000aborder crossings; \u000a</p>\u000a<p> 4. <i>Calls</i> <i>for</i> immediate protection of the Palestinian civilians in the Occupied \u000aPalestinian Territory in compliance with human rights law and international humanitarian law; \u000a</p>\u000a<p> 5. <i>Urges</i> all parties concerned to respect the rules of human rights law and international \u000ahumanitarian law and to refrain from violence against the civilian population; \u000a</p>\u000a<p> 6. <i>Requests </i>the United Nations High Commissioner for Human Rights to report to the \u000aCouncil, at its next session, on the progress made in the implementation of the present resolution. \u000a</p>\u000a<p>----- </p>\u000a\u000a</body></html>
p95
sS'tokens'
p96
(lp97
Vdoctype
p98
aVhtml
p99
aVpublic
p100
aVhtml
p101
aV''
p102
aVhttp
p103
aV''
p104
aVhtml
p105
aVhead
p106
aVtitle
p107
aVuntitled
p108
aVmeta
p109
aVhttp-equiv=
p110
aV''
p111
aVcontent-type
p112
aV''
p113
aVcontent=
p114
aV''
p115
aVcharset=utf-8
p116
aV''
p117
aVbody
p118
aV230108
p119
aVunite
p120
aVnation
p121
aV/p
p122
aV/b
p123
aV/p
p124
aVgeneral
p125
aVassembly
p126
aV/b
p127
aVdistr
p128
aVlimit
p129
aV/p
p130
aV23
p131
aVjanuary
p132
aV2008
p133
aV/p
p134
aVoriginal
p135
aVenglish
p136
aV/p
p137
aV/p
p138
aVright
p139
aVsixth
p140
aVspecial
p141
aVsession
p142
aV/p
p143
aVbehalf
p144
aVorganization
p145
aVsyrian
p146
aVrepublic
p147
aV/b
p148
aVbehalf
p149
aVgroup
p150
aVarab
p151
aVdraft
p152
aVresolution
p153
aV/b
p154
aV/p
p155
aV8230
p156
aVright
p157
aVviolation
p158
aVemanate
p159
aVmilitary
p160
aVattack
p161
aVincursion
p162
aVoccupy
p163
aVterritory
p164
aVparticularly
p165
ag163
aV/b
p166
aV/p
p167
aVright
p168
aV/p
p169
aVguide
p170
aV/i
p171
aVprinciple
p172
aVobjective
p173
aVcharter
p174
aVunite
p175
aVnation
p176
aVuniversal
p177
aVdeclaration
p178
aVright
p179
aVcovenant
p180
aVright
p181
aV/p
p182
aVaffirm
p183
aV/i
p184
aVapplicability
p185
aVrelative
p186
aVprotection
p187
aVcivilian
p188
aVperson
p189
aVtime
p190
aVwar
p191
aV12
p192
aVaugust
p193
aV1949
p194
ag163
aVterritory
p195
aVinclude
p196
aV/p
p197
aVrecognize
p198
aV/i
p199
aVmilitary
p200
aVattack
p201
aVincursion
p202
ag163
aVpalestinian
p203
aVterritory
p204
aVparticularly
p205
aVrecent
p206
ag163
aVcity
p207
aVconstitute
p208
aVgrave
p209
aVviolation
p210
aVhuman
p211
aVhumanitarian
p212
aVright
p213
aVpalestinian
p214
aVcivilian
p215
aVexacerbate
p216
aVsevere
p217
aVhumanitarian
p218
aVcrisis
p219
ag163
aVpalestinian
p220
aVterritory
p221
aV/p
p222
aV/p
p223
aVnon-member
p224
aVhuman
p225
aVright
p226
aV/p
p227
aVa/hrc/s-6/l.1
p228
aVpage
p229
aV/p
p230
aVundermine
p231
aVinternational
p232
aVeffort
p233
aVinclude
p234
aVparis
p235
aVdonor
p236
aV8217
p237
aVconference
p238
aVpalestinian
p239
aVstate
p240
aVaim
p241
aVinvigorate
p242
aVpeace
p243
aVprocess
p244
aVestablish
p245
aVviable
p246
aVcontiguous
p247
aVsovereign
p248
aVindependent
p249
aVpalestinian
p250
aVstate
p251
aVend
p252
aV2008
p253
aV/p
p254
aVrecognize
p255
aV/i
p256
aV/i
p257
aVsiege
p258
aVimpose
p259
ag163
aVinclude
p260
aVclosure
p261
aVborder
p262
aVcross
p263
aVcut
p264
aVsupply
p265
aVfuel
p266
aVfood
p267
aVmedicine
p268
aVconstitute
p269
aVcollective
p270
aVpunishment
p271
aVpalestinian
p272
aVcivilian
p273
aVlead
p274
aVdisastrous
p275
aVhumanitarian
p276
aVenvironmental
p277
aVconsequence
p278
aV/p
p279
aVexpress
p280
aVgrave
p281
aVconcern
p282
aV/i
p283
aVrepeat
p284
aVmilitary
p285
aVattack
p286
aVcarry
p287
ag163
aVpalestinian
p288
aVterritory
p289
aVparticularly
p290
ag163
aVresult
p291
aVloss
p292
aVlife
p293
aVinjury
p294
aVpalestinian
p295
aVcivilian
p296
aVinclude
p297
aVwoman
p298
aVchild
p299
aV/p
p300
aV/i
p301
aV/i
p302
aVurgent
p303
aVinternational
p304
aVaction
p305
aVimmediate
p306
aVend
p307
aVgrave
p308
aVviolation
p309
aVcommit
p310
aVoccupy
p311
aVpower
p312
ag163
aVpalestinian
p313
aVterritory
p314
aVinclude
p315
aVseries
p316
aVincessant
p317
aVrepeat
p318
aVmilitary
p319
aVattack
p320
aVincursion
p321
aVsiege
p322
ag163
aV/p
p323
aVdemand
p324
aV/i
p325
aVoccupy
p326
aVpower
p327
aVlift
p328
aVimmediately
p329
aVsiege
p330
aVimpose
p331
ag163
aVrestore
p332
aVcontinue
p333
aVsupply
p334
aVfuel
p335
aVfood
p336
aVmedicine
p337
aVreopen
p338
aVborder
p339
aVcross
p340
aV/p
p341
aV/i
p342
aV/i
p343
aVimmediate
p344
aVprotection
p345
aVpalestinian
p346
aVcivilian
p347
ag163
aVpalestinian
p348
aVterritory
p349
aVcompliance
p350
aVhuman
p351
aVright
p352
aVlaw
p353
aVinternational
p354
aVhumanitarian
p355
aVlaw
p356
aV/p
p357
aVurge
p358
aV/i
p359
aVparty
p360
aVconcern
p361
aVrespect
p362
aVrule
p363
aVhuman
p364
aVright
p365
aVlaw
p366
aVinternational
p367
aVhumanitarian
p368
aVlaw
p369
aVrefrain
p370
aVviolence
p371
aVcivilian
p372
aVpopulation
p373
aV/p
p374
aVrequest
p375
aV/i
p376
aVunite
p377
aVnation
p378
aVhuman
p379
aVright
p380
aVreport
p381
aVcouncil
p382
aVsession
p383
aVprogress
p384
aVimplementation
p385
aVpresent
p386
aVresolution
p387
aV/p
p388
aV--
p389
aV--
p390
aV/p
p391
aS'israel'
p392
aS'israel'
p393
aS'gaza strip'
p394
aS'gaza strip'
p395
aS'gaza strip'
p396
aS'gaza strip'
p397
aS'gaza strip'
p398
aS'gaza strip'
p399
aS'israeli'
p400
aS'israeli'
p401
aS'israeli'
p402
aS'israeli'
p403
aS'israeli'
p404
aS'palestinian state'
p405
aS'palestinian state'
p406
aS'pakistan'
p407
aS'arab states'
p408
aS'east jerusalem'
p409
aS'west bank'
p410
aS'nablus'
p411
aS'human rights council'
p412
aS'human rights council'
p413
aS'human rights council'
p414
aS'united nations'
p415
aS'united nations'
p416
aS'united nations'
p417
aS'united nations'
p418
aS'united nations high commissioner for human rights'
p419
aS'international covenants on human rights'
p420
aS'annapolis conference'
p421
aS'islamic conference'
p422
aS'fourth geneva convention'
p423
asS'entities'
p424
(ilda.entities
entities
p425
(dp426
g67
(lp427
(Vhuman rights council
I3
tp428
a(Vunited nations
I2
tp429
a(Vunited nations
I2
tp430
a(Vunited nations high commissioner for human rights
I1
tp431
a(Vinternational covenants on human rights
I1
tp432
a(Vannapolis conference
I1
tp433
a(Vislamic conference
I1
tp434
a(Vfourth geneva convention
I1
tp435
a(Vparis donors &
I0
tp436
a(Vuniversal declaration of human rights
I0
tp437
asS'TOPICS'
p438
(lp439
(S'environment'
I1
tp440
a(S'child'
I1
tp441
a(S'peace'
I1
tp442
a(S'women'
I1
tp443
a(S'violence'
I1
tp444
asg65
(lp445
(Visrael
I7
tp446
a(Vgaza strip
I6
tp447
a(Visraeli
I5
tp448
a(Vpalestinian state
I2
tp449
a(Vpakistan
I1
tp450
a(Varab states
I1
tp451
a(Veast jerusalem
I1
tp452
a(Vwest bank
I1
tp453
a(Vnablus
I1
tp454
a(Vsyrian arab republic
I0
tp455
asg63
(lp456
sbsS'original'
p457
(lp458
V<
aV!
ag98
ag99
ag100
ag81
ag90
ag101
ag82
ag89
ag76
ag102
ag103
aV:
ag85
ag104
aV>
aV<
ag105
aV>
aV<
ag106
aV>
aV<
ag107
aV>
ag108
aV<
ag84
aV>
aV<
ag109
ag110
ag111
ag112
ag113
ag114
ag115
ag88
aV;
ag116
ag117
aV>
aV<
ag77
aV>
aV<
ag118
aV>
aV<
aVp
aV>
ag83
aV(
aVe
aV)
ag119
aV<
ag80
aV>
aV<
aVp
aV>
aV<
aVb
aV>
aVunited
p459
aVnations
p460
aV<
ag79
aV>
aV<
ag122
aV>
aV<
aVp
aV>
aV<
aVb
aV>
aVa
aV<
ag123
aV>
aV<
ag124
aV>
aV<
aVp
aV>
aV<
aVb
aV>
ag125
ag126
aV<
ag127
aV>
ag128
aV.
aVlimited
p461
aV<
ag130
aV>
aV<
aVp
aV>
ag91
ag131
ag132
ag133
aV<
ag134
aV>
aV<
aVp
aV>
ag135
aV:
ag136
aV<
ag137
aV>
aV<
aVp
aV>
aV<
ag138
aV>
aV<
aVp
aV>
aVhuman
p462
aVrights
p463
aVcouncil
p464
ag140
ag141
ag142
aV<
ag143
aV>
aV<
aVp
aV>
aV<
aVb
aV>
aVpakistan
p465
aV(
aVon
p466
ag144
aVof
p467
aVthe
p468
ag145
aVof
p469
aVthe
p470
aVislamic
p471
aVconference
p472
aV)
aVand
p473
aVthe
p474
ag146
aVarab
p475
ag147
aV<
ag148
aV>
aV*
aV<
aVb
aV>
aV(
aVon
p476
ag149
aVof
p477
aVthe
p478
ag150
aVof
p479
ag151
aVstates
p480
aV)
aV:
ag152
ag153
aV<
ag154
aV>
aV<
ag155
aV>
aV<
aVp
aV>
aV<
aVb
aV>
ag86
aV&
aV#
ag156
aV;
aVhuman
p481
aVrights
p482
aVviolations
p483
aVemanating
p484
aVfrom
p485
aVisraeli
p486
ag160
aVattacks
p487
aVand
p488
aVincursions
p489
aV,
aVin
p490
aVthe
p491
aVoccupied
p492
aVpalestinian
p493
ag164
aV,
ag165
aVin
p494
aVthe
p495
aVoccupied
p496
aVgaza
p497
aVstrip
p498
aV<
ag166
aV>
aV<
ag167
aV>
aV<
aVp
aV>
aV<
aVi
aV>
aVthe
p499
aVhuman
p500
aVrights
p501
aVcouncil
p502
aV<
ag78
aV>
aV,
aV<
ag169
aV>
aV<
aVp
aV>
aV<
aVi
aV>
aVguided
p503
aV<
ag171
aV>
aVby
p504
aVthe
p505
aVprinciples
p506
aVand
p507
aVobjectives
p508
aVof
p509
aVthe
p510
ag174
aVof
p511
aVthe
p512
aVunited
p513
aVnations
p514
aV,
aVthe
p515
ag177
ag178
aVof
p516
aVhuman
p517
aVrights
p518
aVand
p519
aVthe
p520
aVinternational
p521
aVcovenants
p522
aVon
p523
aVhuman
p524
aVrights
p525
aV,
aV<
ag182
aV>
aV<
aVp
aV>
aV<
aVi
aV>
aVaffirming
p526
aV<
ag184
aV>
aVthe
p527
ag185
aVof
p528
aVthe
p529
aVfourth
p530
aVgeneva
p531
aVconvention
p532
ag186
aVto
p533
aVthe
p534
ag187
aVof
p535
ag188
aVpersons
p536
aVin
p537
ag190
aVof
p538
ag191
aV,
aVof
p539
ag192
ag193
ag194
aV,
aVto
p540
aVthe
p541
aVoccupied
p542
aVpalestinian
p543
ag195
aV,
aVincluding
p544
aVeast
p545
aVjerusalem
p546
aV,
aV<
ag197
aV>
aV<
aVp
aV>
aV<
aVi
aV>
aVrecognizing
p547
aV<
ag199
aV>
aVthat
p548
aVthe
p549
aVisraeli
p550
ag200
aVattacks
p551
aVand
p552
aVincursions
p553
aVin
p554
aVthe
p555
aVoccupied
p556
ag203
ag204
aV,
ag205
aVthe
p557
ag206
aVones
p558
aVin
p559
aVthe
p560
aVoccupied
p561
aVgaza
p562
aVstrip
p563
aVand
p564
aVthe
p565
aVwest
p566
aVbank
p567
ag207
aVof
p568
aVnablus
p569
aV,
ag208
ag209
aVviolations
p570
aVof
p571
aVthe
p572
ag211
aVand
p573
ag212
aVrights
p574
aVof
p575
aVthe
p576
ag214
aVcivilians
p577
aVtherein
p578
aV,
ag216
aVthe
p579
ag217
ag218
ag219
aVin
p580
aVthe
p581
aVoccupied
p582
ag220
ag221
aV<
ag222
aV>
aV<
aVp
aV>
aV<
ag223
aV>
aV<
aVp
aV>
aV*
ag224
aVstate
p583
aVof
p584
aVthe
p585
ag225
aVrights
p586
aVcouncil
p587
aV.
aV<
ag227
aV>
aV<
aVp
aV>
ag228
ag229
aV2
aV<
ag230
aV>
aV<
aVp
aV>
aVand
p588
ag231
ag232
aVefforts
p589
aV,
aVincluding
p590
aVthe
p591
aVannapolis
p592
aVconference
p593
aVand
p594
aVthe
p595
ag235
aVdonors
p596
aV&
aV#
ag237
aV;
ag238
aVfor
p597
aVthe
p598
ag239
ag240
aV,
aVaimed
p599
aVat
p600
aVinvigorating
p601
aVthe
p602
ag243
ag244
aVand
p603
aVestablishing
p604
aVa
ag246
aV,
ag247
aV,
ag248
aVand
p605
ag249
ag250
ag251
aVby
p606
aVthe
p607
ag252
aVof
p608
ag253
aV,
aV<
ag254
aV>
aV<
aVp
aV>
aV<
aVi
aV>
aVrecognizing
p609
aV<
ag256
aV>
aV<
aVi
aV>
aValso
p610
aV<
ag257
aV>
aVthat
p611
aVthe
p612
aVisraeli
p613
ag258
aVimposed
p614
aVon
p615
aVthe
p616
aVoccupied
p617
aVgaza
p618
aVstrip
p619
aV,
aVincluding
p620
aVthe
p621
ag261
aVof
p622
aVthe
p623
ag262
aVcrossings
p624
aVand
p625
aVthe
p626
aVcutting
p627
aVof
p628
aVthe
p629
ag265
aVof
p630
ag266
aV,
ag267
aVand
p631
ag268
aV,
aVconstitutes
p632
ag270
ag271
aVof
p633
aVthe
p634
ag272
aVcivilians
p635
aVand
p636
aVleads
p637
aVto
p638
ag275
ag276
aVand
p639
ag277
aVconsequences
p640
aV,
aV<
ag279
aV>
aV<
aVp
aV>
aV1
aV.
aV<
aVi
aV>
aVexpresses
p641
ag281
ag282
aV<
ag283
aV>
aVat
p642
aVthe
p643
aVrepeated
p644
aVisraeli
p645
ag285
aVattacks
p646
aVcarried
p647
aVout
p648
aVin
p649
aVthe
p650
aVoccupied
p651
ag288
ag289
aV,
ag290
aVin
p652
aVthe
p653
aVoccupied
p654
aVgaza
p655
aVstrip
p656
aV,
aVwhich
p657
aVhave
p658
aVresulted
p659
aVin
p660
ag292
aVof
p661
ag293
aVand
p662
aVinjuries
p663
aVamong
p664
ag295
aVcivilians
p665
aV,
aVincluding
p666
aVwomen
p667
aVand
p668
aVchildren
p669
aV;
aV<
ag300
aV>
aV<
aVp
aV>
aV2
aV.
aV<
aVi
aV>
aVcalls
p670
aV<
ag301
aV>
aV<
aVi
aV>
aVfor
p671
aV<
ag302
aV>
ag303
ag304
ag305
aVto
p672
aVput
p673
aVan
p674
ag306
ag307
aVto
p675
aVthe
p676
ag308
aVviolations
p677
aVcommitted
p678
aVby
p679
aVthe
p680
aVoccupying
p681
ag312
aV,
aVisrael
p682
aV,
aVin
p683
aVthe
p684
aVoccupied
p685
ag313
ag314
aV,
aVincluding
p686
aVthe
p687
ag316
aVof
p688
ag317
aVand
p689
aVrepeated
p690
aVisraeli
p691
ag319
aVattacks
p692
aVand
p693
aVincursions
p694
aVtherein
p695
aVand
p696
aVthe
p697
ag322
aVof
p698
aVthe
p699
aVoccupied
p700
aVgaza
p701
aVstrip
p702
aV;
aV<
ag323
aV>
aV<
aVp
aV>
aV3
aV.
aV<
aVi
aV>
aVdemands
p703
aV<
ag325
aV>
aVthat
p704
aVthe
p705
aVoccupying
p706
ag327
aV,
aVisrael
p707
aV,
ag328
ag329
aVthe
p708
ag330
aVit
p709
aVhas
p710
aVimposed
p711
aVon
p712
aVthe
p713
aVoccupied
p714
aVgaza
p715
aVstrip
p716
aV,
ag332
aVcontinued
p717
ag334
aVof
p718
ag335
aV,
ag336
aVand
p719
ag337
aVand
p720
ag338
aVthe
p721
ag339
aVcrossings
p722
aV;
aV<
ag341
aV>
aV<
aVp
aV>
aV4
aV.
aV<
aVi
aV>
aVcalls
p723
aV<
ag342
aV>
aV<
aVi
aV>
aVfor
p724
aV<
ag343
aV>
ag344
ag345
aVof
p725
aVthe
p726
ag346
aVcivilians
p727
aVin
p728
aVthe
p729
aVoccupied
p730
ag348
ag349
aVin
p731
ag350
aVwith
p732
ag351
aVrights
p733
ag353
aVand
p734
ag354
ag355
ag356
aV;
aV<
ag357
aV>
aV<
aVp
aV>
aV5
aV.
aV<
aVi
aV>
aVurges
p735
aV<
ag359
aV>
aVall
p736
aVparties
p737
aVconcerned
p738
aVto
p739
ag362
aVthe
p740
aVrules
p741
aVof
p742
ag364
aVrights
p743
ag366
aVand
p744
ag367
ag368
ag369
aVand
p745
aVto
p746
ag370
aVfrom
p747
ag371
aVagainst
p748
aVthe
p749
ag372
ag373
aV;
aV<
ag374
aV>
aV<
aVp
aV>
aV6
aV.
aV<
aVi
aV>
aVrequests
p750
aV<
ag376
aV>
aVthe
p751
aVunited
p752
aVnations
p753
aVhigh
p754
aVcommissioner
p755
aVfor
p756
ag379
aVrights
p757
aVto
p758
ag381
aVto
p759
aVthe
p760
ag382
aV,
aVat
p761
aVits
p762
aVnext
p763
ag383
aV,
aVon
p764
aVthe
p765
ag384
aVmade
p766
aVin
p767
aVthe
p768
ag385
aVof
p769
aVthe
p770
ag386
ag387
aV.
aV<
ag388
aV>
aV<
aVp
aV>
ag389
ag390
aV-
aV<
ag391
aV>
aV<
ag92
aV>
aV<
ag87
aV>
asba(ilda.document
document
p771
(dp772
g73
S'11thSpecialSession_Draft.html'
p773
sg5
g6
((lp774
Vbulgaria*
p775
aV,
aV''
p776
aVge.09-13351
p777
aVrepublic*
p778
aV/head
p779
aV!
aV%
aVa/hrc/s-11/l.2
p780
aV/i
p781
aVsweden*
p782
aV)
aV(
aV*
aV/b
p783
aV.
aVlatvia*
p784
aV;
aV:
aV/p
p785
aV...
p786
aV``
p787
aV4.01
p788
aVs-11/
p789
aV/title
p790
aVluxembourg*
p791
aV//www.w3.org/tr/html4/loose.dtd
p792
aVlithuania*
p793
aV/html
p794
aVgreece*
p795
aVestonia*
p796
aVcyprus*
p797
aVfinland*
p798
aVtext/html
p799
aVdenmark*
p800
aVpoland*
p801
aVtransitional//en
p802
aVireland*
p803
aV-//w3c//dtd
p804
aVromania*
p805
aVhungary*
p806
aV/body
p807
aVspain*
p808
aVbelgium*
p809
atRp810
sg94
V<!DOCTYPE html PUBLIC "-//W3C//DTD HTML 4.01 Transitional//EN"\u000a"http://www.w3.org/TR/html4/loose.dtd">\u000a<html><head><title>0910284</title>\u000a<meta http-equiv="Content-Type" content="text/html; charset=UTF-8">\u000a</head>\u000a<body><p><b>UNITED \u000aNATIONS \u000a</b></p>\u000a<p> <b>A\u000a</b> \u000a</p>\u000a<p><b>General Assembly</b> Distr. \u000aLIMITED \u000a</p>\u000a<p>A/HRC/S-11/L.2 \u000a25 May 2009 \u000a</p>\u000a<p>Original:  ENGLISH \u000a</p>\u000a<p> \u000aHUMAN RIGHTS COUNCIL \u000aEleventh special session \u000a26 May 2009 \u000a</p>\u000a<p><b>Austria</b>*<b>, Belgium*, Bosnia and Herzegovina, Bulgaria*, Canada, Chile, Cyprus*, Czech \u000aRepublic*, Denmark*, Estonia*, Finland*, France, Germany, Greece*, Hungary*, \u000a</b></p>\u000a<p><b>Ireland*, Italy, Latvia*, Lithuania*, Luxembourg*, Mauritius, Mexico, Netherlands, \u000aPoland*, Romania*, Spain*, Slovenia, Slovakia, Sweden*, Switzerland, United Kingdom of \u000a</b></p>\u000a<p><b>Great Britain and Northern Ireland:  draft decision \u000a \u000a</b></p>\u000a<p><b>S-11/...  Draft decision on the human rights situation in Sri Lanka \u000a</b></p>\u000a<p> \u000a</p>\u000a<p><i>The Human Rights Council, \u000a</i></p>\u000a<p> \u000a</p>\u000a<p> 1.  <i>Takes note</i> that the Sri Lankan Government announced the end of hostilities in the \u000a</p>\u000a<p>North of Sri Lanka; \u000a</p>\u000a<p> \u000a</p>\u000a<p> 2.  <i>Deplores</i> the significant loss of human lives and suffering in the context of the \u000a</p>\u000a<p>current situation;  \u000a</p>\u000a<p> \u000a</p>\u000a<p>                                                 \u000a<b>*</b> Non-member State of the Human Rights Council. \u000a</p>\u000a<p>GE.09-13351 </p>\u000a\u000a<p>A/HRC/S-11/L.2 \u000apage 2 \u000a \u000a 3.  <i>Unequivocally condemns</i> all attacks that the LTTE (Liberation Tigers of Tamil \u000a</p>\u000a<p>Eelam) launched on the civilian population and its practice of using civilians as human shields; \u000a</p>\u000a<p> \u000a</p>\u000a<p> 4.  <i>Urges</i> the Government of Sri Lanka to cooperate fully with humanitarian \u000a</p>\u000a<p>organizations, including the United Nations and the International Committee of the Red Cross by \u000a</p>\u000a<p>ensuring full, safe and unhindered access of humanitarian assistance to all persons in need \u000a</p>\u000a<p>throughout the country; \u000a</p>\u000a<p> \u000a</p>\u000a<p> 5.  <i>Recalls</i> that States have the primary duty and responsibility to provide protection and \u000a</p>\u000a<p>humanitarian assistance to all segments of the population, including Internally Displaced Persons \u000a</p>\u000a<p>(IDPs), without discrimination; \u000a</p>\u000a<p> \u000a</p>\u000a<p>6.  <i>Calls</i> <i>on</i> the Government of Sri Lanka to ensure the freedom of movements of IDPs, \u000a</p>\u000a<p>access to safe drinking water and sanitation, as well as other human rights such as the right to \u000a</p>\u000a<p>food and the right to the highest attainable level of health; \u000a</p>\u000a<p> \u000a</p>\u000a<p>7.  <i>Calls on</i> the Government of Sri Lanka to facilitate the safe return of IDPs to their \u000a</p>\u000a<p>homes as soon as is practically possible and following on to its commitment to return 80% of \u000a</p>\u000a<p>IDPs for their home by the end of the year; \u000a</p>\u000a<p> \u000a</p>\u000a<p>8.  <i>Calls on</i> the government of Sri Lanka to step up its efforts for the rehabilitation of \u000a</p>\u000a<p>former child soldiers in cooperation with relevant United Nations agencies and <i>urges</i> the \u000a</p>\u000a<p>Government of Sri Lanka to take all feasible measures to ensure the demobilization and effective \u000a</p>\u000a<p>disarmament of children used in armed conflicts and to implement effective measures for their \u000a</p>\u000a<p>rehabilitation, physical and psychological recovery and reintegration into society, in particular \u000a</p>\u000a<p>through educational measures, taking into account the rights and the specific needs and \u000a</p>\u000a<p>capacities of girls; \u000a</p>\u000a<p> \u000a</p>\u000a<p>9. <i>Urges</i> the Government of Sri Lanka to continue strengthening its activities to ensure \u000a</p>\u000a<p>that there is no discrimination against ethnic minorities in the enjoyment of the full range of \u000a</p>\u000a<p>human rights; \u000a</p>\u000a<p> </p>\u000a\u000a<p>A/HRC/S-11/L.2 \u000apage 3 \u000a</p>\u000a<p> \u000a 10. <i>Welcomes</i> the cooperation of Sri Lanka with the thematic special procedures of the \u000a</p>\u000a<p>Council, <i>encourages</i> the government to strengthen its cooperation with them in addressing \u000a</p>\u000a<p>the current situation; \u000a</p>\u000a<p> \u000a</p>\u000a<p> 11. <i>Is gravely concerned</i> by violations of Human Rights and International Humanitarian \u000a</p>\u000a<p>Law committed during the armed conflict in Sri Lanka and their impact on the civilian \u000a</p>\u000a<p>population especially women, children and vulnerable groups; \u000a</p>\u000a<p> \u000a</p>\u000a<p>12. <i>Stresses</i> the importance of combating impunity and calls on the government of Sri \u000a</p>\u000a<p>Lanka to investigate all allegations and bring to justice, in accordance with international \u000a</p>\u000a<p>standards, perpetrators of violations of human rights and of international humanitarian law, \u000a</p>\u000a<p>including hostage taking, torture, enforced disappearances and extrajudicial, summary or \u000a</p>\u000a<p>arbitrary executions, and to increase its efforts to further prevent such violations; \u000a</p>\u000a<p>13. <i>Urges</i> the international community to support reconstruction in Sri Lanka and calls \u000a</p>\u000a<p>on the Government of Sri Lanka to ensure an inclusive process of post-conflict \u000a</p>\u000a<p>reconstruction;  \u000a</p>\u000a<p>14. <i>Calls on</i> the Government of Sri Lanka to take measures to ensure full respect for the \u000a</p>\u000a<p>right to freedom of opinion and expression and protect human rights defenders, and \u000a</p>\u000a<p>effectively investigate allegations of attacks on journalists, media personnel and human \u000a</p>\u000a<p>rights defenders and prosecute those responsible;  \u000a</p>\u000a<p>15. <i>Welcomes</i> the visit of the Secretary General of the United Nations to Sri Lanka and \u000a</p>\u000a<p>encourages the government of Sri Lanka to cooperate with the Council and other relevant \u000a</p>\u000a<p>bodies to address the human rights and humanitarian situation, including through increased \u000a</p>\u000a<p>technical assistance of the Office of the High Commissioner for Human Rights; \u000a</p>\u000a<p>   16. <i>Requests</i> the United Nations High Commissioner for Human Rights to report to the \u000a</p>\u000a<p>Council, at its 12th session, on the progress made towards the implementation of this \u000a</p>\u000a<p>decision. \u000a</p>\u000a<p> \u000a        - - - - - </p>\u000a\u000a</body></html>
p811
sg96
(lp812
Vdoctype
p813
aVhtml
p814
aVpublic
p815
aVhtml
p816
aV''
p817
aVhttp
p818
aV''
p819
aVhtml
p820
aVhead
p821
aVtitle
p822
aV0910284
p823
aVmeta
p824
aVhttp-equiv=
p825
aV''
p826
aVcontent-type
p827
aV''
p828
aVcontent=
p829
aV''
p830
aVcharset=utf-8
p831
aV''
p832
aVbody
p833
aVunite
p834
aVnation
p835
aV/b
p836
aV/p
p837
aVgeneral
p838
aVassembly
p839
aV/b
p840
aVdistr
p841
aVlimit
p842
aV/p
p843
aV25
p844
aV2009
p845
aV/p
p846
aVoriginal
p847
aVenglish
p848
aV/p
p849
aVright
p850
aVeleventh
p851
aVspecial
p852
aVsession
p853
aV26
p854
aV2009
p855
aV/p
p856
aV/b
p857
aVczech
p858
aV/b
p859
aV/p
p860
aVunite
p861
aV/b
p862
aV/p
p863
aVdraft
p864
aVdecision
p865
aV/b
p866
aV/p
p867
aVdraft
p868
aVdecision
p869
aVright
p870
aVsituation
p871
aV/b
p872
aV/p
p873
aV/p
p874
aVright
p875
aV/p
p876
aV/p
p877
aVnote
p878
aV/i
p879
aVlankan
p880
aVgovernment
p881
aVannounce
p882
aVend
p883
aVhostility
p884
aV/p
p885
aVnorth
p886
aV/p
p887
aV/p
p888
aVdeplore
p889
aV/i
p890
aVsignificant
p891
aVloss
p892
aVlive
p893
aVsuffer
p894
aVcontext
p895
aV/p
p896
aVcurrent
p897
aVsituation
p898
aV/p
p899
aV/p
p900
aV/b
p901
aVnon-member
p902
aVstate
p903
aVhuman
p904
aVright
p905
aV/p
p906
aV/p
p907
aVa/hrc/s-11/l.2
p908
aVpage
p909
aVunequivocally
p910
aVcondemn
p911
aV/i
p912
aVattack
p913
aVtiger
p914
aV/p
p915
aVeelam
p916
aVlaunch
p917
aVcivilian
p918
aVpopulation
p919
aVpractice
p920
aVuse
p921
aVcivilian
p922
aVhuman
p923
aVshield
p924
aV/p
p925
aV/p
p926
aVurge
p927
aV/i
p928
aVgovernment
p929
aVcooperate
p930
aVfully
p931
aVhumanitarian
p932
aV/p
p933
aVorganization
p934
aVinclude
p935
aVunite
p936
aVnation
p937
aV/p
p938
aVensure
p939
aVsafe
p940
aVunhindered
p941
aVaccess
p942
aVhumanitarian
p943
aVassistance
p944
aVperson
p945
aVneed
p946
aV/p
p947
aVcountry
p948
aV/p
p949
aV/p
p950
aVrecall
p951
aV/i
p952
aVstate
p953
aVprimary
p954
aVduty
p955
aVresponsibility
p956
aVprovide
p957
aVprotection
p958
aV/p
p959
aVhumanitarian
p960
aVassistance
p961
aVsegment
p962
aVpopulation
p963
aVinclude
p964
aVinternally
p965
aVdisplace
p966
aVperson
p967
aV/p
p968
aVidp
p969
aVdiscrimination
p970
aV/p
p971
aV/p
p972
aV/i
p973
aV/i
p974
aVgovernment
p975
aVensure
p976
aVfreedom
p977
aVmovement
p978
aVidp
p979
aV/p
p980
aVaccess
p981
aVsafe
p982
aVdrink
p983
aVwater
p984
aVsanitation
p985
aVhuman
p986
aVright
p987
aVright
p988
aV/p
p989
aVfood
p990
aVright
p991
aVhighest
p992
aVattainable
p993
aVlevel
p994
aVhealth
p995
aV/p
p996
aV/p
p997
aV/i
p998
aVgovernment
p999
aVfacilitate
p1000
aVsafe
p1001
aVreturn
p1002
aVidp
p1003
aV/p
p1004
aVhome
p1005
aVsoon
p1006
aVpractically
p1007
aVpossible
p1008
aVfollow
p1009
aVcommitment
p1010
aVreturn
p1011
aV80
p1012
aV/p
p1013
aVidp
p1014
aVhome
p1015
aVend
p1016
aVyear
p1017
aV/p
p1018
aV/p
p1019
aV/i
p1020
aVgovernment
p1021
aVstep
p1022
aVeffort
p1023
aVrehabilitation
p1024
aV/p
p1025
aVchild
p1026
aVsoldier
p1027
aVcooperation
p1028
aVrelevant
p1029
aVunite
p1030
aVnation
p1031
aVagency
p1032
aVurge
p1033
aV/i
p1034
aV/p
p1035
aVgovernment
p1036
aVfeasible
p1037
aVmeasure
p1038
aVensure
p1039
aVdemobilization
p1040
aVeffective
p1041
aV/p
p1042
aVdisarmament
p1043
ag299
aVuse
p1044
aVarm
p1045
aVconflict
p1046
aVimplement
p1047
aVeffective
p1048
aVmeasure
p1049
aV/p
p1050
aVrehabilitation
p1051
aVphysical
p1052
aVpsychological
p1053
aVrecovery
p1054
aVreintegration
p1055
aVsociety
p1056
aVparticular
p1057
aV/p
p1058
aVeducational
p1059
aVmeasure
p1060
aVaccount
p1061
aVright
p1062
aVspecific
p1063
aVneed
p1064
aV/p
p1065
aVcapacity
p1066
aVgirl
p1067
aV/p
p1068
aV/p
p1069
aVurge
p1070
aV/i
p1071
aVgovernment
p1072
aVcontinue
p1073
aVstrengthen
p1074
aVactivity
p1075
aVensure
p1076
aV/p
p1077
aVdiscrimination
p1078
aVethnic
p1079
aVminority
p1080
aVenjoyment
p1081
aVrange
p1082
aV/p
p1083
aVhuman
p1084
aVright
p1085
aV/p
p1086
aV/p
p1087
aVa/hrc/s-11/l.2
p1088
aVpage
p1089
aV/p
p1090
aV10
p1091
aVwelcome
p1092
aV/i
p1093
aVcooperation
p1094
aVthematic
p1095
aVspecial
p1096
aVprocedure
p1097
aV/p
p1098
aVencourage
p1099
aV/i
p1100
aVgovernment
p1101
aVstrengthen
p1102
aVcooperation
p1103
aVaddress
p1104
aV/p
p1105
aVcurrent
p1106
aVsituation
p1107
aV/p
p1108
aV/p
p1109
aV11
p1110
aVgravely
p1111
aVconcern
p1112
aV/i
p1113
aVviolation
p1114
aVhuman
p1115
aVright
p1116
aVinternational
p1117
aVhumanitarian
p1118
aV/p
p1119
aVlaw
p1120
ag310
aVarm
p1121
aVconflict
p1122
aVimpact
p1123
aVcivilian
p1124
aV/p
p1125
aVpopulation
p1126
aVespecially
p1127
aVwoman
p1128
ag299
aVvulnerable
p1129
aVgroup
p1130
aV/p
p1131
aV/p
p1132
aV12
p1133
aVstress
p1134
aV/i
p1135
aVimportance
p1136
aVcombat
p1137
aVimpunity
p1138
aVgovernment
p1139
aV/p
p1140
aVinvestigate
p1141
aVallegation
p1142
aVbring
p1143
aVjustice
p1144
aVaccordance
p1145
aVinternational
p1146
aV/p
p1147
aVstandard
p1148
aVperpetrator
p1149
aVviolation
p1150
aVhuman
p1151
aVright
p1152
aVinternational
p1153
aVhumanitarian
p1154
aVlaw
p1155
aV/p
p1156
aVinclude
p1157
aVhostage
p1158
aVtorture
p1159
aVenforce
p1160
aVdisappearance
p1161
aVextrajudicial
p1162
aVsummary
p1163
aV/p
p1164
aVarbitrary
p1165
aVexecution
p1166
aVincrease
p1167
aVeffort
p1168
aVprevent
p1169
aVviolation
p1170
aV/p
p1171
aV13
p1172
aVurge
p1173
aV/i
p1174
aVinternational
p1175
aVcommunity
p1176
aVsupport
p1177
aVreconstruction
p1178
aV/p
p1179
aVgovernment
p1180
aVensure
p1181
aVinclusive
p1182
aVprocess
p1183
aVpost-conflict
p1184
aV/p
p1185
aVreconstruction
p1186
aV/p
p1187
aV14
p1188
aV/i
p1189
aVgovernment
p1190
aVmeasure
p1191
aVensure
p1192
aVrespect
p1193
aV/p
p1194
aVright
p1195
aVfreedom
p1196
aVopinion
p1197
aVexpression
p1198
aVprotect
p1199
aVhuman
p1200
aVright
p1201
aVdefender
p1202
aV/p
p1203
aVeffectively
p1204
aVinvestigate
p1205
aVallegation
p1206
aVattack
p1207
aVjournalist
p1208
aVmedium
p1209
aVpersonnel
p1210
aVhuman
p1211
aV/p
p1212
aVright
p1213
aVdefender
p1214
aVprosecute
p1215
aVresponsible
p1216
aV/p
p1217
aV15
p1218
aVwelcome
p1219
aV/i
p1220
aVvisit
p1221
aVsecretary
p1222
aVgeneral
p1223
aVunite
p1224
aVnation
p1225
aV/p
p1226
aVencourage
p1227
aVgovernment
p1228
aVsri
p1229
aVcooperate
p1230
aVrelevant
p1231
aV/p
p1232
aVbody
p1233
aVaddress
p1234
aVhuman
p1235
aVright
p1236
aVhumanitarian
p1237
aVsituation
p1238
aVinclude
p1239
aVincrease
p1240
aV/p
p1241
aVtechnical
p1242
aVassistance
p1243
aVoffice
p1244
aVhuman
p1245
aVright
p1246
aV/p
p1247
aV16
p1248
aVrequest
p1249
aV/i
p1250
aVunite
p1251
aVnation
p1252
aVhigh
p1253
aVcommissioner
p1254
aVhuman
p1255
aVright
p1256
aVreport
p1257
aV/p
p1258
aV12th
p1259
aVsession
p1260
aVprogress
p1261
aVimplementation
p1262
aV/p
p1263
aVdecision
p1264
aV/p
p1265
aV/p
p1266
aS'sri lanka'
p1267
aS'sri lanka'
p1268
aS'sri lanka'
p1269
aS'sri lanka'
p1270
aS'sri lanka'
p1271
aS'sri lanka'
p1272
aS'sri lanka'
p1273
aS'sri lanka'
p1274
aS'sri lanka'
p1275
aS'sri lanka'
p1276
aS'sri lanka'
p1277
aS'sri lanka'
p1278
aS'sri lanka'
p1279
aS'sri lanka'
p1280
aS'sri lanka'
p1281
aS'sri lanka'
p1282
aS'mexico'
p1283
aS'canada'
p1284
aS'united kingdom'
p1285
aS'herzegovina'
p1286
aS'switzerland'
p1287
aS'germany'
p1288
aS'bosnia'
p1289
aS'netherlands'
p1290
aS'slovenia'
p1291
aS'mauritius'
p1292
aS'chile'
p1293
aS'slovakia'
p1294
aS'france'
p1295
aS'italy'
p1296
aS'austria'
p1297
aS'great britain'
p1298
aS'northern ireland'
p1299
aS'council'
p1300
aS'council'
p1301
aS'council'
p1302
aS'united nations'
p1303
aS'united nations'
p1304
aS'united nations'
p1305
aS'united nations'
p1306
aS'united nations'
p1307
aS'united nations'
p1308
aS'united nations'
p1309
aS'united nations'
p1310
aS'human rights council'
p1311
aS'human rights council'
p1312
aS'human rights council'
p1313
aS'united nations high commissioner for human rights'
p1314
aS'ltte'
p1315
aS'liberation tigers of tamil'
p1316
aS'international committee of the red cross'
p1317
asg424
(ilda.entities
entities
p1318
(dp1319
g67
(lp1320
(Vcouncil
I6
tp1321
a(Vunited nations
I4
tp1322
a(Vunited nations
I4
tp1323
a(Vhuman rights council
I3
tp1324
a(Vunited nations high commissioner for human rights
I1
tp1325
a(Vltte
I1
tp1326
a(Vliberation tigers of tamil
I1
tp1327
a(Vinternational committee of the red cross
I1
tp1328
a(Vhuman rights and international humanitarian <
I0
tp1329
asg438
(lp1330
(S'child'
I3
tp1331
a(S'armed conflict'
I2
tp1332
a(S'freedom'
I2
tp1333
a(S'discrimination'
I2
tp1334
a(S'justice'
I1
tp1335
a(S'health'
I1
tp1336
a(S'journalists'
I1
tp1337
a(S'women'
I1
tp1338
a(S'torture'
I1
tp1339
a(S'water'
I1
tp1340
a(S'education'
I1
tp1341
asg65
(lp1342
(Vlanka
I17
tp1343
a(Vsri lanka
I16
tp1344
a(Vmexico
I1
tp1345
a(Vcanada
I1
tp1346
a(Vunited kingdom
I1
tp1347
a(Vherzegovina
I1
tp1348
a(Vswitzerland
I1
tp1349
a(Vgermany
I1
tp1350
a(Vbosnia
I1
tp1351
a(Vnetherlands
I1
tp1352
a(Vslovenia
I1
tp1353
a(Vmauritius
I1
tp1354
a(Vchile
I1
tp1355
a(Vslovakia
I1
tp1356
a(Vfrance
I1
tp1357
a(Vitaly
I1
tp1358
a(Vaustria
I1
tp1359
a(Vgreat britain
I1
tp1360
a(Vnorthern ireland
I1
tp1361
asg63
(lp1362
sbsg457
(lp1363
V<
aV!
ag813
ag814
ag815
ag787
ag804
ag816
ag788
ag802
ag776
ag817
ag818
aV:
ag792
ag819
aV>
aV<
ag820
aV>
aV<
ag821
aV>
aV<
ag822
aV>
ag823
aV<
ag790
aV>
aV<
ag824
ag825
ag826
ag827
ag828
ag829
ag830
ag799
aV;
ag831
ag832
aV>
aV<
ag779
aV>
aV<
ag833
aV>
aV<
aVp
aV>
aV<
aVb
aV>
aVunited
p1364
aVnations
p1365
aV<
ag783
aV>
aV<
ag785
aV>
aV<
aVp
aV>
aV<
aVb
aV>
aVa
aV<
ag836
aV>
aV<
ag837
aV>
aV<
aVp
aV>
aV<
aVb
aV>
ag838
ag839
aV<
ag840
aV>
ag841
aV.
aVlimited
p1366
aV<
ag843
aV>
aV<
aVp
aV>
ag780
ag844
aVmay
p1367
ag845
aV<
ag846
aV>
aV<
aVp
aV>
ag847
aV:
ag848
aV<
ag849
aV>
aV<
aVp
aV>
aVhuman
p1368
aVrights
p1369
aVcouncil
p1370
ag851
ag852
ag853
ag854
aVmay
p1371
ag855
aV<
ag856
aV>
aV<
aVp
aV>
aV<
aVb
aV>
aVaustria
p1372
aV<
ag857
aV>
aV*
aV<
aVb
aV>
aV,
ag809
aV,
aVbosnia
p1373
aVand
p1374
aVherzegovina
p1375
aV,
ag775
aV,
aVcanada
p1376
aV,
aVchile
p1377
aV,
ag797
aV,
ag858
ag778
aV,
ag800
aV,
ag796
aV,
ag798
aV,
aVfrance
p1378
aV,
aVgermany
p1379
aV,
ag795
aV,
ag806
aV,
aV<
ag859
aV>
aV<
ag860
aV>
aV<
aVp
aV>
aV<
aVb
aV>
ag803
aV,
aVitaly
p1380
aV,
ag784
aV,
ag793
aV,
ag791
aV,
aVmauritius
p1381
aV,
aVmexico
p1382
aV,
aVnetherlands
p1383
aV,
ag801
aV,
ag805
aV,
ag808
aV,
aVslovenia
p1384
aV,
aVslovakia
p1385
aV,
ag782
aV,
aVswitzerland
p1386
aV,
aVunited
p1387
aVkingdom
p1388
aVof
p1389
aV<
ag862
aV>
aV<
ag863
aV>
aV<
aVp
aV>
aV<
aVb
aV>
aVgreat
p1390
aVbritain
p1391
aVand
p1392
aVnorthern
p1393
aVireland
p1394
aV:
ag864
ag865
aV<
ag866
aV>
aV<
ag867
aV>
aV<
aVp
aV>
aV<
aVb
aV>
ag789
ag786
ag868
ag869
aVon
p1395
aVthe
p1396
aVhuman
p1397
aVrights
p1398
ag871
aVin
p1399
aVsri
p1400
aVlanka
p1401
aV<
ag872
aV>
aV<
ag873
aV>
aV<
aVp
aV>
aV<
ag874
aV>
aV<
aVp
aV>
aV<
aVi
aV>
aVthe
p1402
aVhuman
p1403
aVrights
p1404
aVcouncil
p1405
aV,
aV<
ag781
aV>
aV<
ag876
aV>
aV<
aVp
aV>
aV<
ag877
aV>
aV<
aVp
aV>
aV1
aV.
aV<
aVi
aV>
aVtakes
p1406
ag878
aV<
ag879
aV>
aVthat
p1407
aVthe
p1408
aVsri
p1409
ag880
ag881
aVannounced
p1410
aVthe
p1411
ag883
aVof
p1412
aVhostilities
p1413
aVin
p1414
aVthe
p1415
aV<
ag885
aV>
aV<
aVp
aV>
ag886
aVof
p1416
aVsri
p1417
aVlanka
p1418
aV;
aV<
ag887
aV>
aV<
aVp
aV>
aV<
ag888
aV>
aV<
aVp
aV>
aV2
aV.
aV<
aVi
aV>
aVdeplores
p1419
aV<
ag890
aV>
aVthe
p1420
ag891
ag892
aVof
p1421
aVhuman
p1422
aVlives
p1423
aVand
p1424
aVsuffering
p1425
aVin
p1426
aVthe
p1427
ag895
aVof
p1428
aVthe
p1429
aV<
ag896
aV>
aV<
aVp
aV>
ag897
ag898
aV;
aV<
ag899
aV>
aV<
aVp
aV>
aV<
ag900
aV>
aV<
aVp
aV>
aV<
aVb
aV>
aV*
aV<
ag901
aV>
ag902
ag903
aVof
p1430
aVthe
p1431
ag904
aVrights
p1432
aVcouncil
p1433
aV.
aV<
ag906
aV>
aV<
aVp
aV>
ag777
aV<
ag907
aV>
aV<
aVp
aV>
ag908
ag909
aV2
aV3
aV.
aV<
aVi
aV>
ag910
aVcondemns
p1434
aV<
ag912
aV>
aVall
p1435
aVattacks
p1436
aVthat
p1437
aVthe
p1438
aVltte
p1439
aV(
aVliberation
p1440
aVtigers
p1441
aVof
p1442
aVtamil
p1443
aV<
ag915
aV>
aV<
aVp
aV>
ag916
aV)
aVlaunched
p1444
aVon
p1445
aVthe
p1446
ag918
ag919
aVand
p1447
aVits
p1448
ag920
aVof
p1449
aVusing
p1450
aVcivilians
p1451
aVas
p1452
ag923
aVshields
p1453
aV;
aV<
ag925
aV>
aV<
aVp
aV>
aV<
ag926
aV>
aV<
aVp
aV>
aV4
aV.
aV<
aVi
aV>
aVurges
p1454
aV<
ag928
aV>
aVthe
p1455
ag929
aVof
p1456
aVsri
p1457
aVlanka
p1458
aVto
p1459
ag930
ag931
aVwith
p1460
ag932
aV<
ag933
aV>
aV<
aVp
aV>
aVorganizations
p1461
aV,
aVincluding
p1462
aVthe
p1463
aVunited
p1464
aVnations
p1465
aVand
p1466
aVthe
p1467
aVinternational
p1468
aVcommittee
p1469
aVof
p1470
aVthe
p1471
aVred
p1472
aVcross
p1473
aVby
p1474
aV<
ag938
aV>
aV<
aVp
aV>
aVensuring
p1475
aVfull
p1476
aV,
ag940
aVand
p1477
ag941
ag942
aVof
p1478
ag943
ag944
aVto
p1479
aVall
p1480
aVpersons
p1481
aVin
p1482
ag946
aV<
ag947
aV>
aV<
aVp
aV>
aVthroughout
p1483
aVthe
p1484
ag948
aV;
aV<
ag949
aV>
aV<
aVp
aV>
aV<
ag950
aV>
aV<
aVp
aV>
aV5
aV.
aV<
aVi
aV>
aVrecalls
p1485
aV<
ag952
aV>
aVthat
p1486
aVstates
p1487
aVhave
p1488
aVthe
p1489
ag954
ag955
aVand
p1490
ag956
aVto
p1491
ag957
ag958
aVand
p1492
aV<
ag959
aV>
aV<
aVp
aV>
ag960
ag961
aVto
p1493
aVall
p1494
aVsegments
p1495
aVof
p1496
aVthe
p1497
ag963
aV,
aVincluding
p1498
ag965
aVdisplaced
p1499
aVpersons
p1500
aV<
ag968
aV>
aV<
aVp
aV>
aV(
aVidps
p1501
aV)
aV,
aVwithout
p1502
ag970
aV;
aV<
ag971
aV>
aV<
aVp
aV>
aV<
ag972
aV>
aV<
aVp
aV>
aV6
aV.
aV<
aVi
aV>
aVcalls
p1503
aV<
ag973
aV>
aV<
aVi
aV>
aVon
p1504
aV<
ag974
aV>
aVthe
p1505
ag975
aVof
p1506
aVsri
p1507
aVlanka
p1508
aVto
p1509
ag976
aVthe
p1510
ag977
aVof
p1511
aVmovements
p1512
aVof
p1513
aVidps
p1514
aV,
aV<
ag980
aV>
aV<
aVp
aV>
ag981
aVto
p1515
ag982
aVdrinking
p1516
ag984
aVand
p1517
ag985
aV,
aVas
p1518
aVwell
p1519
aVas
p1520
aVother
p1521
ag986
aVrights
p1522
aVsuch
p1523
aVas
p1524
aVthe
p1525
ag988
aVto
p1526
aV<
ag989
aV>
aV<
aVp
aV>
ag990
aVand
p1527
aVthe
p1528
ag991
aVto
p1529
aVthe
p1530
ag992
ag993
ag994
aVof
p1531
ag995
aV;
aV<
ag996
aV>
aV<
aVp
aV>
aV<
ag997
aV>
aV<
aVp
aV>
aV7
aV.
aV<
aVi
aV>
aVcalls
p1532
aVon
p1533
aV<
ag998
aV>
aVthe
p1534
ag999
aVof
p1535
aVsri
p1536
aVlanka
p1537
aVto
p1538
ag1000
aVthe
p1539
ag1001
ag1002
aVof
p1540
aVidps
p1541
aVto
p1542
aVtheir
p1543
aV<
ag1004
aV>
aV<
aVp
aV>
aVhomes
p1544
aVas
p1545
ag1006
aVas
p1546
aVis
p1547
ag1007
ag1008
aVand
p1548
aVfollowing
p1549
aVon
p1550
aVto
p1551
aVits
p1552
ag1010
aVto
p1553
ag1011
ag1012
aV%
aVof
p1554
aV<
ag1013
aV>
aV<
aVp
aV>
aVidps
p1555
aVfor
p1556
aVtheir
p1557
ag1015
aVby
p1558
aVthe
p1559
ag1016
aVof
p1560
aVthe
p1561
ag1017
aV;
aV<
ag1018
aV>
aV<
aVp
aV>
aV<
ag1019
aV>
aV<
aVp
aV>
aV8
aV.
aV<
aVi
aV>
aVcalls
p1562
aVon
p1563
aV<
ag1020
aV>
aVthe
p1564
ag1021
aVof
p1565
aVsri
p1566
aVlanka
p1567
aVto
p1568
ag1022
aVup
p1569
aVits
p1570
aVefforts
p1571
aVfor
p1572
aVthe
p1573
ag1024
aVof
p1574
aV<
ag1025
aV>
aV<
aVp
aV>
aVformer
p1575
ag1026
aVsoldiers
p1576
aVin
p1577
ag1028
aVwith
p1578
ag1029
aVunited
p1579
aVnations
p1580
aVagencies
p1581
aVand
p1582
aV<
aVi
aV>
aVurges
p1583
aV<
ag1034
aV>
aVthe
p1584
aV<
ag1035
aV>
aV<
aVp
aV>
ag1036
aVof
p1585
aVsri
p1586
aVlanka
p1587
aVto
p1588
aVtake
p1589
aVall
p1590
ag1037
aVmeasures
p1591
aVto
p1592
ag1039
aVthe
p1593
ag1040
aVand
p1594
ag1041
aV<
ag1042
aV>
aV<
aVp
aV>
ag1043
aVof
p1595
aVchildren
p1596
aVused
p1597
aVin
p1598
aVarmed
p1599
aVconflicts
p1600
aVand
p1601
aVto
p1602
ag1047
ag1048
aVmeasures
p1603
aVfor
p1604
aVtheir
p1605
aV<
ag1050
aV>
aV<
aVp
aV>
ag1051
aV,
ag1052
aVand
p1606
ag1053
ag1054
aVand
p1607
ag1055
aVinto
p1608
ag1056
aV,
aVin
p1609
ag1057
aV<
ag1058
aV>
aV<
aVp
aV>
aVthrough
p1610
ag1059
aVmeasures
p1611
aV,
aVtaking
p1612
aVinto
p1613
ag1061
aVthe
p1614
aVrights
p1615
aVand
p1616
aVthe
p1617
ag1063
aVneeds
p1618
aVand
p1619
aV<
ag1065
aV>
aV<
aVp
aV>
aVcapacities
p1620
aVof
p1621
aVgirls
p1622
aV;
aV<
ag1068
aV>
aV<
aVp
aV>
aV<
ag1069
aV>
aV<
aVp
aV>
aV9
aV.
aV<
aVi
aV>
aVurges
p1623
aV<
ag1071
aV>
aVthe
p1624
ag1072
aVof
p1625
aVsri
p1626
aVlanka
p1627
aVto
p1628
ag1073
aVstrengthening
p1629
aVits
p1630
aVactivities
p1631
aVto
p1632
ag1076
aV<
ag1077
aV>
aV<
aVp
aV>
aVthat
p1633
aVthere
p1634
aVis
p1635
aVno
p1636
ag1078
aVagainst
p1637
ag1079
aVminorities
p1638
aVin
p1639
aVthe
p1640
ag1081
aVof
p1641
aVthe
p1642
aVfull
p1643
ag1082
aVof
p1644
aV<
ag1083
aV>
aV<
aVp
aV>
ag1084
aVrights
p1645
aV;
aV<
ag1086
aV>
aV<
aVp
aV>
aV<
ag1087
aV>
aV<
aVp
aV>
ag1088
ag1089
aV3
aV<
ag1090
aV>
aV<
aVp
aV>
ag1091
aV.
aV<
aVi
aV>
aVwelcomes
p1646
aV<
ag1093
aV>
aVthe
p1647
ag1094
aVof
p1648
aVsri
p1649
aVlanka
p1650
aVwith
p1651
aVthe
p1652
ag1095
ag1096
aVprocedures
p1653
aVof
p1654
aVthe
p1655
aV<
ag1098
aV>
aV<
aVp
aV>
aVcouncil
p1656
aV,
aV<
aVi
aV>
aVencourages
p1657
aV<
ag1100
aV>
aVthe
p1658
ag1101
aVto
p1659
ag1102
aVits
p1660
ag1103
aVwith
p1661
aVthem
p1662
aVin
p1663
aVaddressing
p1664
aV<
ag1105
aV>
aV<
aVp
aV>
aVthe
p1665
ag1106
ag1107
aV;
aV<
ag1108
aV>
aV<
aVp
aV>
aV<
ag1109
aV>
aV<
aVp
aV>
ag1110
aV.
aV<
aVi
aV>
aVis
p1666
ag1111
aVconcerned
p1667
aV<
ag1113
aV>
aVby
p1668
aVviolations
p1669
aVof
p1670
ag1115
aVrights
p1671
aVand
p1672
ag1117
ag1118
aV<
ag1119
aV>
aV<
aVp
aV>
ag1120
aVcommitted
p1673
aVduring
p1674
aVthe
p1675
aVarmed
p1676
ag1122
aVin
p1677
aVsri
p1678
aVlanka
p1679
aVand
p1680
aVtheir
p1681
ag1123
aVon
p1682
aVthe
p1683
ag1124
aV<
ag1125
aV>
aV<
aVp
aV>
ag1126
ag1127
aVwomen
p1684
aV,
aVchildren
p1685
aVand
p1686
ag1129
aVgroups
p1687
aV;
aV<
ag1131
aV>
aV<
aVp
aV>
aV<
ag1132
aV>
aV<
aVp
aV>
ag1133
aV.
aV<
aVi
aV>
aVstresses
p1688
aV<
ag1135
aV>
aVthe
p1689
ag1136
aVof
p1690
aVcombating
p1691
ag1138
aVand
p1692
aVcalls
p1693
aVon
p1694
aVthe
p1695
ag1139
aVof
p1696
aVsri
p1697
aV<
ag1140
aV>
aV<
aVp
aV>
aVlanka
p1698
aVto
p1699
ag1141
aVall
p1700
aVallegations
p1701
aVand
p1702
ag1143
aVto
p1703
ag1144
aV,
aVin
p1704
ag1145
aVwith
p1705
ag1146
aV<
ag1147
aV>
aV<
aVp
aV>
aVstandards
p1706
aV,
aVperpetrators
p1707
aVof
p1708
aVviolations
p1709
aVof
p1710
ag1151
aVrights
p1711
aVand
p1712
aVof
p1713
ag1153
ag1154
ag1155
aV,
aV<
ag1156
aV>
aV<
aVp
aV>
aVincluding
p1714
ag1158
aVtaking
p1715
aV,
ag1159
aV,
aVenforced
p1716
aVdisappearances
p1717
aVand
p1718
ag1162
aV,
ag1163
aVor
p1719
aV<
ag1164
aV>
aV<
aVp
aV>
ag1165
aVexecutions
p1720
aV,
aVand
p1721
aVto
p1722
ag1167
aVits
p1723
aVefforts
p1724
aVto
p1725
aVfurther
p1726
ag1169
aVsuch
p1727
aVviolations
p1728
aV;
aV<
ag1171
aV>
aV<
aVp
aV>
ag1172
aV.
aV<
aVi
aV>
aVurges
p1729
aV<
ag1174
aV>
aVthe
p1730
ag1175
ag1176
aVto
p1731
ag1177
ag1178
aVin
p1732
aVsri
p1733
aVlanka
p1734
aVand
p1735
aVcalls
p1736
aV<
ag1179
aV>
aV<
aVp
aV>
aVon
p1737
aVthe
p1738
ag1180
aVof
p1739
aVsri
p1740
aVlanka
p1741
aVto
p1742
ag1181
aVan
p1743
ag1182
ag1183
aVof
p1744
ag1184
aV<
ag1185
aV>
aV<
aVp
aV>
ag1186
aV;
aV<
ag1187
aV>
aV<
aVp
aV>
ag1188
aV.
aV<
aVi
aV>
aVcalls
p1745
aVon
p1746
aV<
ag1189
aV>
aVthe
p1747
ag1190
aVof
p1748
aVsri
p1749
aVlanka
p1750
aVto
p1751
aVtake
p1752
aVmeasures
p1753
aVto
p1754
ag1192
aVfull
p1755
ag1193
aVfor
p1756
aVthe
p1757
aV<
ag1194
aV>
aV<
aVp
aV>
ag1195
aVto
p1758
ag1196
aVof
p1759
ag1197
aVand
p1760
ag1198
aVand
p1761
ag1199
ag1200
aVrights
p1762
aVdefenders
p1763
aV,
aVand
p1764
aV<
ag1203
aV>
aV<
aVp
aV>
ag1204
ag1205
aVallegations
p1765
aVof
p1766
aVattacks
p1767
aVon
p1768
aVjournalists
p1769
aV,
aVmedia
p1770
ag1210
aVand
p1771
ag1211
aV<
ag1212
aV>
aV<
aVp
aV>
aVrights
p1772
aVdefenders
p1773
aVand
p1774
ag1215
aVthose
p1775
ag1216
aV;
aV<
ag1217
aV>
aV<
aVp
aV>
ag1218
aV.
aV<
aVi
aV>
aVwelcomes
p1776
aV<
ag1220
aV>
aVthe
p1777
ag1221
aVof
p1778
aVthe
p1779
ag1222
ag1223
aVof
p1780
aVthe
p1781
aVunited
p1782
aVnations
p1783
aVto
p1784
aVsri
p1785
aVlanka
p1786
aVand
p1787
aV<
ag1226
aV>
aV<
aVp
aV>
aVencourages
p1788
aVthe
p1789
ag1228
aVof
p1790
ag1229
aVlanka
p1791
aVto
p1792
ag1230
aVwith
p1793
aVthe
p1794
aVcouncil
p1795
aVand
p1796
aVother
p1797
ag1231
aV<
ag1232
aV>
aV<
aVp
aV>
aVbodies
p1798
aVto
p1799
ag1234
aVthe
p1800
ag1235
aVrights
p1801
aVand
p1802
ag1237
ag1238
aV,
aVincluding
p1803
aVthrough
p1804
aVincreased
p1805
aV<
ag1241
aV>
aV<
aVp
aV>
ag1242
ag1243
aVof
p1806
aVthe
p1807
ag1244
aVof
p1808
aVthe
p1809
aVhigh
p1810
aVcommissioner
p1811
aVfor
p1812
ag1245
aVrights
p1813
aV;
aV<
ag1247
aV>
aV<
aVp
aV>
ag1248
aV.
aV<
aVi
aV>
aVrequests
p1814
aV<
ag1250
aV>
aVthe
p1815
aVunited
p1816
aVnations
p1817
ag1253
ag1254
aVfor
p1818
ag1255
aVrights
p1819
aVto
p1820
ag1257
aVto
p1821
aVthe
p1822
aV<
ag1258
aV>
aV<
aVp
aV>
aVcouncil
p1823
aV,
aVat
p1824
aVits
p1825
ag1259
ag1260
aV,
aVon
p1826
aVthe
p1827
ag1261
aVmade
p1828
aVtowards
p1829
aVthe
p1830
ag1262
aVof
p1831
aVthis
p1832
aV<
ag1263
aV>
aV<
aVp
aV>
ag1264
aV.
aV<
ag1265
aV>
aV<
aVp
aV>
aV-
aV-
aV-
aV-
aV-
aV<
ag1266
aV>
aV<
ag807
aV>
aV<
ag794
aV>
asba(ilda.document
document
p1833
(dp1834
g73
S'19thRegularSession_PS1.html'
p1835
sg5
g6
((lp1836
V,
aV''
p1837
aV/head
p1838
aV!
aV#
aV/i
p1839
aV&
aV)
aV(
aV*
aV/b
p1840
aV.
aV;
aV:
aV18/2
p1841
aV/p
p1842
aV``
p1843
aV19/1
p1844
aV4.01
p1845
aV/title
p1846
aV/html
p1847
aVa/hrc/19/2
p1848
aVpresident*
p1849
aVge.12-13231
p1850
aV//www.w3.org/tr/html4/loose.dtd
p1851
aV[
aV]
aV2.
p1852
aVtext/html
p1853
aVtransitional//en
p1854
aV-//w3c//dtd
p1855
aV/body
p1856
aVavailable.
p1857
aV1.
p1858
atRp1859
sg94
V<!DOCTYPE html PUBLIC "-//W3C//DTD HTML 4.01 Transitional//EN"\u000a"http://www.w3.org/TR/html4/loose.dtd">\u000a<html><head><title>United Nations</title>\u000a<meta http-equiv="Content-Type" content="text/html; charset=UTF-8">\u000a</head>\u000a<body><p>GE.12-13231 \u000a</p>\u000a<p><b>Human Rights Council \u000aNineteenth session \u000a</b></p>\u000a<p>Agenda item 2 \u000a<b>Annual report of the United Nations High Commissioner  \u000a</b></p>\u000a<p><b>for Human Rights and reports of the Office of the  \u000a</b></p>\u000a<p><b>High Commissioner and the Secretary-General  \u000a</b></p>\u000a<p><b>  Statement by the President* \u000a</b></p>\u000a<p><b>  PRST 19/1  \u000a</b></p>\u000a<p>At the 53rd meeting, held on 22 March 2012, the President of the Human Rights \u000aCouncil read out the following statement: \u000a</p>\u000a<p>&#8220;<i>The Human Rights Council</i>, \u000a</p>\u000a<p><i>Bearing in mind</i> President&#8217;s statement 18/2 of 20 September 2011, \u000a</p>\u000a<p>1.<i> Welcomes</i> the decision by the United Nations High Commissioner for \u000aHuman Rights that the launch of the annual report of the Office of the High \u000aCommissioner will be accompanied, annually, by meetings with the participation of \u000aStates Members of the United Nations and other stakeholders to provide information \u000aon, inter alia, the issues identified in the fourth paragraph of President&#8217;s statement \u000a18/2; \u000a</p>\u000a<p> 2.<i>  Also welcomes</i> the assurance of the High Commissioner to take into \u000aaccount the comments made during the meetings, and that the said comments will be \u000acompiled by the Office of the High Commissioner and made publicly available.&#8221; \u000a</p>\u000a<p>[Adopted without a vote.] \u000a</p>\u000a<p>    \u000a \u000a</p>\u000a<p> \u000a</p>\u000a<p>  \u000a *  The present statement will appear in the report of the Human Rights Council on its nineteenth session \u000a</p>\u000a<p>(A/HRC/19/2), chap. I.  \u000a</p>\u000a</body></html>
p1860
sg96
(lp1861
Vdoctype
p1862
aVhtml
p1863
aVpublic
p1864
aVhtml
p1865
aV''
p1866
aVhttp
p1867
aV''
p1868
aVhtml
p1869
aVhead
p1870
aVtitle
p1871
aVunite
p1872
aVnation
p1873
aVmeta
p1874
aVhttp-equiv=
p1875
aV''
p1876
aVcontent-type
p1877
aV''
p1878
aVcontent=
p1879
aV''
p1880
aVcharset=utf-8
p1881
aV''
p1882
aVbody
p1883
aVright
p1884
aVnineteenth
p1885
aVsession
p1886
aV/p
p1887
aVagenda
p1888
aVitem
p1889
aVannual
p1890
aVreport
p1891
aVunite
p1892
aVnation
p1893
aV/b
p1894
aV/p
p1895
aVright
p1896
aVreport
p1897
aVoffice
p1898
aV/b
p1899
aV/p
p1900
aVsecretary-general
p1901
aV/b
p1902
aV/p
p1903
aVstatement
p1904
aV/b
p1905
aV/p
p1906
aVprst
p1907
aV/b
p1908
aV/p
p1909
aV53rd
p1910
aVmeet
p1911
aVhold
p1912
aV22
p1913
aVmarch
p1914
aV2012
p1915
aVpresident
p1916
aVright
p1917
aVread
p1918
aVfollow
p1919
aVstatement
p1920
aV/p
p1921
aV8220
p1922
aVright
p1923
aV/p
p1924
aVbear
p1925
aVmind
p1926
aV/i
p1927
aVpresident
p1928
aV8217
p1929
aVstatement
p1930
aV20
p1931
aVseptember
p1932
aV2011
p1933
aV/p
p1934
aVwelcome
p1935
aV/i
p1936
aVdecision
p1937
aVunite
p1938
aVnation
p1939
aVhigh
p1940
aVcommissioner
p1941
aVright
p1942
aVlaunch
p1943
aVannual
p1944
aVreport
p1945
aVoffice
p1946
aVhigh
p1947
aVcommissioner
p1948
aVaccompany
p1949
aVannually
p1950
aVmeet
p1951
aVparticipation
p1952
aVstate
p1953
aVmember
p1954
aVunite
p1955
aVnation
p1956
aVstakeholder
p1957
aVprovide
p1958
aVinformation
p1959
aVinter
p1960
aValia
p1961
aVissue
p1962
aVidentify
p1963
aVfourth
p1964
aVparagraph
p1965
aVpresident
p1966
aV8217
p1967
aVstatement
p1968
aV18/2
p1969
aV/p
p1970
aVwelcome
p1971
aV/i
p1972
aVassurance
p1973
aVhigh
p1974
aVcommissioner
p1975
aVaccount
p1976
aVcomment
p1977
aVmeet
p1978
aVcomment
p1979
aVcompile
p1980
aVoffice
p1981
aVhigh
p1982
aVcommissioner
p1983
aVpublicly
p1984
aV8221
p1985
aV/p
p1986
aVadopt
p1987
aVvote
p1988
aV/p
p1989
aV/p
p1990
aV/p
p1991
aVpresent
p1992
aVstatement
p1993
aVappear
p1994
aVreport
p1995
aVright
p1996
aVcouncil
p1997
aVnineteenth
p1998
aVsession
p1999
aV/p
p2000
aVchap
p2001
aV/p
p2002
aS'human rights'
p2003
aS'human rights'
p2004
aS'human rights'
p2005
aS'human rights'
p2006
aS'human rights'
p2007
aS'human rights'
p2008
aS'united nations'
p2009
aS'united nations'
p2010
aS'united nations'
p2011
aS'united nations'
p2012
aS'human rights council'
p2013
aS'human rights council'
p2014
aS'human rights council'
p2015
aS'united nations high commissioner'
p2016
aS'united nations high commissioner'
p2017
asg424
(ilda.entities
entities
p2018
(dp2019
g67
(lp2020
(Vhuman rights
I6
tp2021
a(Vunited nations
I4
tp2022
a(Vhuman rights council
I3
tp2023
a(Vunited nations high commissioner
I2
tp2024
a(Vhuman rights council nineteenth
I0
tp2025
a(Vunited nations high commissioner for human rights
I0
tp2026
asg438
(lp2027
sg65
(lp2028
sg63
(lp2029
sbsg457
(lp2030
V<
aV!
ag1862
ag1863
ag1864
ag1843
ag1855
ag1865
ag1845
ag1854
ag1837
ag1866
ag1867
aV:
ag1851
ag1868
aV>
aV<
ag1869
aV>
aV<
ag1870
aV>
aV<
ag1871
aV>
aVunited
p2031
aVnations
p2032
aV<
ag1846
aV>
aV<
ag1874
ag1875
ag1876
ag1877
ag1878
ag1879
ag1880
ag1853
aV;
ag1881
ag1882
aV>
aV<
ag1838
aV>
aV<
ag1883
aV>
aV<
aVp
aV>
ag1850
aV<
ag1842
aV>
aV<
aVp
aV>
aV<
aVb
aV>
aVhuman
p2033
aVrights
p2034
aVcouncil
p2035
ag1885
ag1886
aV<
ag1840
aV>
aV<
ag1887
aV>
aV<
aVp
aV>
ag1888
ag1889
aV2
aV<
aVb
aV>
ag1890
ag1891
aVof
p2036
aVthe
p2037
aVunited
p2038
aVnations
p2039
aVhigh
p2040
aVcommissioner
p2041
aV<
ag1894
aV>
aV<
ag1895
aV>
aV<
aVp
aV>
aV<
aVb
aV>
aVfor
p2042
aVhuman
p2043
aVrights
p2044
aVand
p2045
aVreports
p2046
aVof
p2047
aVthe
p2048
ag1898
aVof
p2049
aVthe
p2050
aV<
ag1899
aV>
aV<
ag1900
aV>
aV<
aVp
aV>
aV<
aVb
aV>
aVhigh
p2051
aVcommissioner
p2052
aVand
p2053
aVthe
p2054
ag1901
aV<
ag1902
aV>
aV<
ag1903
aV>
aV<
aVp
aV>
aV<
aVb
aV>
ag1904
aVby
p2055
aVthe
p2056
ag1849
aV<
ag1905
aV>
aV<
ag1906
aV>
aV<
aVp
aV>
aV<
aVb
aV>
ag1907
ag1844
aV<
ag1908
aV>
aV<
ag1909
aV>
aV<
aVp
aV>
aVat
p2057
aVthe
p2058
ag1910
aVmeeting
p2059
aV,
aVheld
p2060
aVon
p2061
ag1913
ag1914
ag1915
aV,
aVthe
p2062
ag1916
aVof
p2063
aVthe
p2064
aVhuman
p2065
aVrights
p2066
aVcouncil
p2067
ag1918
aVout
p2068
aVthe
p2069
aVfollowing
p2070
ag1920
aV:
aV<
ag1921
aV>
aV<
aVp
aV>
aV&
aV#
ag1922
aV;
aV<
aVi
aV>
aVthe
p2071
aVhuman
p2072
aVrights
p2073
aVcouncil
p2074
aV<
ag1839
aV>
aV,
aV<
ag1924
aV>
aV<
aVp
aV>
aV<
aVi
aV>
aVbearing
p2075
aVin
p2076
ag1926
aV<
ag1927
aV>
ag1928
aV&
aV#
ag1929
aV;
aVs
ag1930
ag1841
aVof
p2077
ag1931
ag1932
ag1933
aV,
aV<
ag1934
aV>
aV<
aVp
aV>
ag1858
aV<
aVi
aV>
aVwelcomes
p2078
aV<
ag1936
aV>
aVthe
p2079
ag1937
aVby
p2080
aVthe
p2081
aVunited
p2082
aVnations
p2083
ag1940
ag1941
aVfor
p2084
aVhuman
p2085
aVrights
p2086
aVthat
p2087
aVthe
p2088
ag1943
aVof
p2089
aVthe
p2090
ag1944
ag1945
aVof
p2091
aVthe
p2092
ag1946
aVof
p2093
aVthe
p2094
ag1947
ag1948
aVwill
p2095
aVbe
p2096
aVaccompanied
p2097
aV,
ag1950
aV,
aVby
p2098
aVmeetings
p2099
aVwith
p2100
aVthe
p2101
ag1952
aVof
p2102
aVstates
p2103
aVmembers
p2104
aVof
p2105
aVthe
p2106
aVunited
p2107
aVnations
p2108
aVand
p2109
aVother
p2110
aVstakeholders
p2111
aVto
p2112
ag1958
ag1959
aVon
p2113
aV,
ag1960
ag1961
aV,
aVthe
p2114
aVissues
p2115
aVidentified
p2116
aVin
p2117
aVthe
p2118
ag1964
ag1965
aVof
p2119
ag1966
aV&
aV#
ag1967
aV;
aVs
ag1968
ag1969
aV;
aV<
ag1970
aV>
aV<
aVp
aV>
ag1852
aV<
aVi
aV>
aValso
p2120
aVwelcomes
p2121
aV<
ag1972
aV>
aVthe
p2122
ag1973
aVof
p2123
aVthe
p2124
ag1974
ag1975
aVto
p2125
aVtake
p2126
aVinto
p2127
ag1976
aVthe
p2128
aVcomments
p2129
aVmade
p2130
aVduring
p2131
aVthe
p2132
aVmeetings
p2133
aV,
aVand
p2134
aVthat
p2135
aVthe
p2136
aVsaid
p2137
aVcomments
p2138
aVwill
p2139
aVbe
p2140
aVcompiled
p2141
aVby
p2142
aVthe
p2143
ag1981
aVof
p2144
aVthe
p2145
ag1982
ag1983
aVand
p2146
aVmade
p2147
ag1984
ag1857
aV&
aV#
ag1985
aV;
aV<
ag1986
aV>
aV<
aVp
aV>
aV[
aVadopted
p2148
aVwithout
p2149
aVa
ag1988
aV.
aV]
aV<
ag1989
aV>
aV<
aVp
aV>
aV<
ag1990
aV>
aV<
aVp
aV>
aV<
ag1991
aV>
aV<
aVp
aV>
aV*
aVthe
p2150
ag1992
ag1993
aVwill
p2151
ag1994
aVin
p2152
aVthe
p2153
ag1995
aVof
p2154
aVthe
p2155
aVhuman
p2156
aVrights
p2157
ag1997
aVon
p2158
aVits
p2159
ag1998
ag1999
aV<
ag2000
aV>
aV<
aVp
aV>
aV(
ag1848
aV)
aV,
ag2001
aV.
aVi
aV.
aV<
ag2002
aV>
aV<
ag1856
aV>
aV<
ag1847
aV>
asbasS'numberTopics'
p2160
NsS'corpus'
p2161
(lp2162
sS'specialChars'
p2163
g6
((lp2164
V,
aV!
aV#
aV"
aV%
aV$
aV'
aV&
aV
aV(
aV*
aV\u20ac
aV/
aV.
aV
aV;
aV:
aV?
aV@
aV[
aV]
aV\u005c
aV_
aV^
aV`
aV)
aV{
aV}
aV~
atRp2165
s.