(dp1
S'dictionary'
p2
(ilda.Dictionary
Dictionary
p3
(dp4
S'specialCharacters'
p5
c__builtin__
set
p6
((ltRp7
sS'stopwords'
p8
g6
((ltRp9
sS'ids'
p10
ccopy_reg
_reconstructor
p11
(cgensim.corpora.dictionary
Dictionary
p12
c__builtin__
object
p13
NtRp14
(dp15
S'num_docs'
p16
I0
sS'token2id'
p17
(dp18
sS'dfs'
p19
(dp20
sS'num_nnz'
p21
I0
sS'id2token'
p22
(dp23
sS'num_pos'
p24
I0
sbsS'words'
p25
g6
((ltRp26
sbsS'topics'
p27
(ilda.entities
entities
p28
(dp29
S'predefined'
p30
(lp31
S'armed conflict'
p32
aS'environment'
p33
aS'military'
p34
aS'attack'
p35
aS'justice'
p36
aS'freedom'
p37
aS'family'
p38
aS'migrant'
p39
aS'health'
p40
aS'child'
p41
aS'racism'
p42
aS'corruption'
p43
aS'culture'
p44
aS'climate'
p45
aS'discrimination'
p46
aS'economy'
p47
aS'internet'
p48
aS'journalist'
p49
aS'peace'
p50
aS'poverty'
p51
aS'privacy'
p52
aS'religion'
p53
aS'slavery'
p54
aS'self determination'
p55
aS'sexual violence'
p56
aS'women'
p57
aS'torture'
p58
aS'violence'
p59
aS'water'
p60
aS'trafficking'
p61
aS'terrorism'
p62
aS'education'
p63
aS'indigenous people'
p64
asS'PERSON'
p65
(lp66
sS'LOCATION'
p67
(lp68
sS'ORGANIZATION'
p69
(lp70
sbsS'collection'
p71
(lp72
(ilda.document
document
p73
(dp74
S'title'
p75
S'6thSpecialSession_Resolution.html'
p76
sg5
g6
((lp77
V,
aV''
p78
aV/head
p79
aV!
aV#
aV/i
p80
aV&
aV)
aV(
aV*
aV/b
p81
aV.
aV;
aV:
aV/p
p82
aV``
p83
aV4.01
p84
aVge.08-10287
p85
aV/title
p86
aV//www.w3.org/tr/html4/loose.dtd
p87
aVs-6/
p88
aV/html
p89
aVtext/html
p90
aVtransitional//en
p91
aV-//w3c//dtd
p92
aVa/hrc/s-6/l.1
p93
aV/body
p94
atRp95
sS'text'
p96
V<!DOCTYPE html PUBLIC "-//W3C//DTD HTML 4.01 Transitional//EN"\u000a"http://www.w3.org/TR/html4/loose.dtd">\u000a<html><head><title>untitled</title>\u000a<meta http-equiv="Content-Type" content="text/html; charset=UTF-8">\u000a</head>\u000a<body><p>GE.08-10287  (E)    230108 \u000a</p>\u000a<p><b>UNITED \u000aNATIONS \u000a</b></p>\u000a<p> <b>A \u000a</b> \u000a</p>\u000a<p><b>General Assembly</b> Distr. \u000aLIMITED \u000a</p>\u000a<p>A/HRC/S-6/L.1 \u000a23 January 2008 \u000a</p>\u000a<p>Original:  ENGLISH \u000a</p>\u000a<p> \u000a</p>\u000a<p>HUMAN RIGHTS COUNCIL \u000aSixth special session \u000a</p>\u000a<p><b>Pakistan (on behalf of the Organization of the Islamic Conference) and the Syrian  \u000aArab Republic</b>* <b>(on behalf of the Group of Arab States): draft resolution \u000a</b></p>\u000a<p><b>S-6/&#8230; Human rights violations emanating from Israeli military attacks and  \u000aincursions, in the Occupied Palestinian Territory, particularly in the  \u000aoccupied Gaza Strip  \u000a</b></p>\u000a<p><i> The Human Rights Council</i>, \u000a</p>\u000a<p><i> Guided</i> by the principles and objectives of the Charter of the United Nations, the Universal \u000aDeclaration of Human Rights and the International Covenants on Human Rights, \u000a</p>\u000a<p><i> Affirming</i> the applicability of the Fourth Geneva Convention relative to the Protection of \u000aCivilian Persons in Time of War, of 12 August 1949, to the Occupied Palestinian Territory, \u000aincluding East Jerusalem, \u000a</p>\u000a<p><i> Recognizing</i> that the Israeli military attacks and incursions in the Occupied Palestinian \u000aTerritory, particularly the recent ones in the occupied Gaza Strip and the West Bank city of \u000aNablus, constitute grave violations of the human and humanitarian rights of the Palestinian \u000acivilians therein, exacerbate the severe humanitarian crisis in the Occupied Palestinian Territory \u000a</p>\u000a<p>                                                 \u000a</p>\u000a<p>*  Non-member State of the Human Rights Council. </p>\u000a\u000a<p>A/HRC/S-6/L.1 \u000apage 2 \u000a \u000a</p>\u000a<p>and undermine international efforts, including the Annapolis Conference and the Paris Donors&#8217; \u000aConference for the Palestinian State, aimed at invigorating the peace process and establishing a \u000aviable, contiguous, sovereign and independent Palestinian State by the end of 2008, \u000a</p>\u000a<p><i> Recognizing</i> <i>also</i> that the Israeli siege imposed on the occupied Gaza Strip, including the \u000aclosure of the border crossings and the cutting of the supply of fuel, food and medicine, \u000aconstitutes collective punishment of the Palestinian civilians and leads to disastrous humanitarian \u000aand environmental consequences, \u000a</p>\u000a<p> 1. <i>Expresses grave concern</i> at the repeated Israeli military attacks carried out in the \u000aOccupied Palestinian Territory, particularly in the occupied Gaza Strip, which have resulted in \u000aloss of life and injuries among Palestinian civilians, including women and children; \u000a</p>\u000a<p> 2. <i>Calls</i> <i>for</i> urgent international action to put an immediate end to the grave violations \u000acommitted by the occupying Power, Israel, in the Occupied Palestinian Territory, including the \u000aseries of incessant and repeated Israeli military attacks and incursions therein and the siege of the \u000aoccupied Gaza Strip; \u000a</p>\u000a<p> 3. <i>Demands</i> that the occupying Power, Israel, lift immediately the siege it has imposed \u000aon the occupied Gaza Strip, restore continued supply of fuel, food and medicine and reopen the \u000aborder crossings; \u000a</p>\u000a<p> 4. <i>Calls</i> <i>for</i> immediate protection of the Palestinian civilians in the Occupied \u000aPalestinian Territory in compliance with human rights law and international humanitarian law; \u000a</p>\u000a<p> 5. <i>Urges</i> all parties concerned to respect the rules of human rights law and international \u000ahumanitarian law and to refrain from violence against the civilian population; \u000a</p>\u000a<p> 6. <i>Requests </i>the United Nations High Commissioner for Human Rights to report to the \u000aCouncil, at its next session, on the progress made in the implementation of the present resolution. \u000a</p>\u000a<p>----- </p>\u000a\u000a</body></html>
p97
sS'tokens'
p98
(lp99
Vdoctype
p100
aVhtml
p101
aVpublic
p102
aVhtml
p103
aV''
p104
aVhttp
p105
aV''
p106
aVhtml
p107
aVhead
p108
aVtitle
p109
aVuntitled
p110
aVmeta
p111
aVhttp-equiv=
p112
aV''
p113
aVcontent-type
p114
aV''
p115
aVcontent=
p116
aV''
p117
aVcharset=utf-8
p118
aV''
p119
aVbody
p120
aV230108
p121
aVunite
p122
aVnation
p123
aV/p
p124
aV/b
p125
aV/p
p126
aVgeneral
p127
aVassembly
p128
aV/b
p129
aVdistr
p130
aVlimit
p131
aV/p
p132
aV23
p133
aVjanuary
p134
aV2008
p135
aV/p
p136
aVoriginal
p137
aVenglish
p138
aV/p
p139
aV/p
p140
aVright
p141
aVsixth
p142
aVspecial
p143
aVsession
p144
aV/p
p145
aVbehalf
p146
aVorganization
p147
aVsyrian
p148
aVrepublic
p149
aV/b
p150
aVbehalf
p151
aVgroup
p152
aVarab
p153
aVdraft
p154
aVresolution
p155
aV/b
p156
aV/p
p157
aV8230
p158
aVright
p159
aVviolation
p160
aVemanate
p161
aVmilitary
p162
aVattack
p163
aVincursion
p164
aVoccupy
p165
aVterritory
p166
aVparticularly
p167
ag165
aV/b
p168
aV/p
p169
aVright
p170
aV/p
p171
aVguide
p172
aV/i
p173
aVprinciple
p174
aVobjective
p175
aVcharter
p176
aVunite
p177
aVnation
p178
aVuniversal
p179
aVdeclaration
p180
aVright
p181
aVcovenant
p182
aVright
p183
aV/p
p184
aVaffirm
p185
aV/i
p186
aVapplicability
p187
aVrelative
p188
aVprotection
p189
aVcivilian
p190
aVperson
p191
aVtime
p192
aVwar
p193
aV12
p194
aVaugust
p195
aV1949
p196
ag165
aVterritory
p197
aVinclude
p198
aV/p
p199
aVrecognize
p200
aV/i
p201
aVmilitary
p202
aVattack
p203
aVincursion
p204
ag165
aVpalestinian
p205
aVterritory
p206
aVparticularly
p207
aVrecent
p208
ag165
aVcity
p209
aVconstitute
p210
aVgrave
p211
aVviolation
p212
aVhuman
p213
aVhumanitarian
p214
aVright
p215
aVpalestinian
p216
aVcivilian
p217
aVexacerbate
p218
aVsevere
p219
aVhumanitarian
p220
aVcrisis
p221
ag165
aVpalestinian
p222
aVterritory
p223
aV/p
p224
aV/p
p225
aVnon-member
p226
aVhuman
p227
aVright
p228
aV/p
p229
aVa/hrc/s-6/l.1
p230
aVpage
p231
aV/p
p232
aVundermine
p233
aVinternational
p234
aVeffort
p235
aVinclude
p236
aVparis
p237
aVdonor
p238
aV8217
p239
aVconference
p240
aVpalestinian
p241
aVstate
p242
aVaim
p243
aVinvigorate
p244
aVpeace
p245
aVprocess
p246
aVestablish
p247
aVviable
p248
aVcontiguous
p249
aVsovereign
p250
aVindependent
p251
aVpalestinian
p252
aVstate
p253
aVend
p254
aV2008
p255
aV/p
p256
aVrecognize
p257
aV/i
p258
aV/i
p259
aVsiege
p260
aVimpose
p261
ag165
aVinclude
p262
aVclosure
p263
aVborder
p264
aVcross
p265
aVcut
p266
aVsupply
p267
aVfuel
p268
aVfood
p269
aVmedicine
p270
aVconstitute
p271
aVcollective
p272
aVpunishment
p273
aVpalestinian
p274
aVcivilian
p275
aVlead
p276
aVdisastrous
p277
aVhumanitarian
p278
aVenvironmental
p279
aVconsequence
p280
aV/p
p281
aVexpress
p282
aVgrave
p283
aVconcern
p284
aV/i
p285
aVrepeat
p286
aVmilitary
p287
aVattack
p288
aVcarry
p289
ag165
aVpalestinian
p290
aVterritory
p291
aVparticularly
p292
ag165
aVresult
p293
aVloss
p294
aVlife
p295
aVinjury
p296
aVpalestinian
p297
aVcivilian
p298
aVinclude
p299
aVwoman
p300
aVchild
p301
aV/p
p302
aV/i
p303
aV/i
p304
aVurgent
p305
aVinternational
p306
aVaction
p307
aVimmediate
p308
aVend
p309
aVgrave
p310
aVviolation
p311
aVcommit
p312
aVoccupy
p313
aVpower
p314
ag165
aVpalestinian
p315
aVterritory
p316
aVinclude
p317
aVseries
p318
aVincessant
p319
aVrepeat
p320
aVmilitary
p321
aVattack
p322
aVincursion
p323
aVsiege
p324
ag165
aV/p
p325
aVdemand
p326
aV/i
p327
aVoccupy
p328
aVpower
p329
aVlift
p330
aVimmediately
p331
aVsiege
p332
aVimpose
p333
ag165
aVrestore
p334
aVcontinue
p335
aVsupply
p336
aVfuel
p337
aVfood
p338
aVmedicine
p339
aVreopen
p340
aVborder
p341
aVcross
p342
aV/p
p343
aV/i
p344
aV/i
p345
aVimmediate
p346
aVprotection
p347
aVpalestinian
p348
aVcivilian
p349
ag165
aVpalestinian
p350
aVterritory
p351
aVcompliance
p352
aVhuman
p353
aVright
p354
aVlaw
p355
aVinternational
p356
aVhumanitarian
p357
aVlaw
p358
aV/p
p359
aVurge
p360
aV/i
p361
aVparty
p362
aVconcern
p363
aVrespect
p364
aVrule
p365
aVhuman
p366
aVright
p367
aVlaw
p368
aVinternational
p369
aVhumanitarian
p370
aVlaw
p371
aVrefrain
p372
aVviolence
p373
aVcivilian
p374
aVpopulation
p375
aV/p
p376
aVrequest
p377
aV/i
p378
aVunite
p379
aVnation
p380
aVhuman
p381
aVright
p382
aVreport
p383
aVcouncil
p384
aVsession
p385
aVprogress
p386
aVimplementation
p387
aVpresent
p388
aVresolution
p389
aV/p
p390
aV--
p391
aV--
p392
aV/p
p393
aS'human rights council'
p394
aS'human rights council'
p395
aS'human rights council'
p396
aS'united nations'
p397
aS'united nations'
p398
aS'united nations'
p399
aS'united nations'
p400
aS'united nations high commissioner for human rights'
p401
aS'international covenants on human rights'
p402
aS'annapolis conference'
p403
aS'islamic conference'
p404
aS'fourth geneva convention'
p405
aS'israel'
p406
aS'israel'
p407
aS'gaza strip'
p408
aS'gaza strip'
p409
aS'gaza strip'
p410
aS'gaza strip'
p411
aS'gaza strip'
p412
aS'gaza strip'
p413
aS'israeli'
p414
aS'israeli'
p415
aS'israeli'
p416
aS'israeli'
p417
aS'israeli'
p418
aS'palestinian state'
p419
aS'palestinian state'
p420
aS'pakistan'
p421
aS'arab states'
p422
aS'east jerusalem'
p423
aS'west bank'
p424
aS'nablus'
p425
asS'entities'
p426
(ilda.entities
entities
p427
(dp428
g69
(lp429
(Vhuman rights council
I3
tp430
a(Vunited nations
I2
tp431
a(Vunited nations
I2
tp432
a(Vunited nations high commissioner for human rights
I1
tp433
a(Vinternational covenants on human rights
I1
tp434
a(Vannapolis conference
I1
tp435
a(Vislamic conference
I1
tp436
a(Vfourth geneva convention
I1
tp437
a(Vparis donors &
I0
tp438
a(Vuniversal declaration of human rights
I0
tp439
asS'TOPICS'
p440
(lp441
(S'military'
I4
tp442
a(S'attack'
I4
tp443
a(S'environment'
I1
tp444
a(S'child'
I1
tp445
a(S'peace'
I1
tp446
a(S'women'
I1
tp447
a(S'violence'
I1
tp448
asg67
(lp449
(Visrael
I7
tp450
a(Vgaza strip
I6
tp451
a(Visraeli
I5
tp452
a(Vpalestinian state
I2
tp453
a(Vpakistan
I1
tp454
a(Varab states
I1
tp455
a(Veast jerusalem
I1
tp456
a(Vwest bank
I1
tp457
a(Vnablus
I1
tp458
a(Vsyrian arab republic
I0
tp459
asg65
(lp460
sbsS'original'
p461
(lp462
V<
aV!
ag100
ag101
ag102
ag83
ag92
ag103
ag84
ag91
ag78
ag104
ag105
aV:
ag87
ag106
aV>
aV<
ag107
aV>
aV<
ag108
aV>
aV<
ag109
aV>
ag110
aV<
ag86
aV>
aV<
ag111
ag112
ag113
ag114
ag115
ag116
ag117
ag90
aV;
ag118
ag119
aV>
aV<
ag79
aV>
aV<
ag120
aV>
aV<
aVp
aV>
ag85
aV(
aVe
aV)
ag121
aV<
ag82
aV>
aV<
aVp
aV>
aV<
aVb
aV>
aVunited
p463
aVnations
p464
aV<
ag81
aV>
aV<
ag124
aV>
aV<
aVp
aV>
aV<
aVb
aV>
aVa
aV<
ag125
aV>
aV<
ag126
aV>
aV<
aVp
aV>
aV<
aVb
aV>
ag127
ag128
aV<
ag129
aV>
ag130
aV.
aVlimited
p465
aV<
ag132
aV>
aV<
aVp
aV>
ag93
ag133
ag134
ag135
aV<
ag136
aV>
aV<
aVp
aV>
ag137
aV:
ag138
aV<
ag139
aV>
aV<
aVp
aV>
aV<
ag140
aV>
aV<
aVp
aV>
aVhuman
p466
aVrights
p467
aVcouncil
p468
ag142
ag143
ag144
aV<
ag145
aV>
aV<
aVp
aV>
aV<
aVb
aV>
aVpakistan
p469
aV(
aVon
p470
ag146
aVof
p471
aVthe
p472
ag147
aVof
p473
aVthe
p474
aVislamic
p475
aVconference
p476
aV)
aVand
p477
aVthe
p478
ag148
aVarab
p479
ag149
aV<
ag150
aV>
aV*
aV<
aVb
aV>
aV(
aVon
p480
ag151
aVof
p481
aVthe
p482
ag152
aVof
p483
ag153
aVstates
p484
aV)
aV:
ag154
ag155
aV<
ag156
aV>
aV<
ag157
aV>
aV<
aVp
aV>
aV<
aVb
aV>
ag88
aV&
aV#
ag158
aV;
aVhuman
p485
aVrights
p486
aVviolations
p487
aVemanating
p488
aVfrom
p489
aVisraeli
p490
ag162
aVattacks
p491
aVand
p492
aVincursions
p493
aV,
aVin
p494
aVthe
p495
aVoccupied
p496
aVpalestinian
p497
ag166
aV,
ag167
aVin
p498
aVthe
p499
aVoccupied
p500
aVgaza
p501
aVstrip
p502
aV<
ag168
aV>
aV<
ag169
aV>
aV<
aVp
aV>
aV<
aVi
aV>
aVthe
p503
aVhuman
p504
aVrights
p505
aVcouncil
p506
aV<
ag80
aV>
aV,
aV<
ag171
aV>
aV<
aVp
aV>
aV<
aVi
aV>
aVguided
p507
aV<
ag173
aV>
aVby
p508
aVthe
p509
aVprinciples
p510
aVand
p511
aVobjectives
p512
aVof
p513
aVthe
p514
ag176
aVof
p515
aVthe
p516
aVunited
p517
aVnations
p518
aV,
aVthe
p519
ag179
ag180
aVof
p520
aVhuman
p521
aVrights
p522
aVand
p523
aVthe
p524
aVinternational
p525
aVcovenants
p526
aVon
p527
aVhuman
p528
aVrights
p529
aV,
aV<
ag184
aV>
aV<
aVp
aV>
aV<
aVi
aV>
aVaffirming
p530
aV<
ag186
aV>
aVthe
p531
ag187
aVof
p532
aVthe
p533
aVfourth
p534
aVgeneva
p535
aVconvention
p536
ag188
aVto
p537
aVthe
p538
ag189
aVof
p539
ag190
aVpersons
p540
aVin
p541
ag192
aVof
p542
ag193
aV,
aVof
p543
ag194
ag195
ag196
aV,
aVto
p544
aVthe
p545
aVoccupied
p546
aVpalestinian
p547
ag197
aV,
aVincluding
p548
aVeast
p549
aVjerusalem
p550
aV,
aV<
ag199
aV>
aV<
aVp
aV>
aV<
aVi
aV>
aVrecognizing
p551
aV<
ag201
aV>
aVthat
p552
aVthe
p553
aVisraeli
p554
ag202
aVattacks
p555
aVand
p556
aVincursions
p557
aVin
p558
aVthe
p559
aVoccupied
p560
ag205
ag206
aV,
ag207
aVthe
p561
ag208
aVones
p562
aVin
p563
aVthe
p564
aVoccupied
p565
aVgaza
p566
aVstrip
p567
aVand
p568
aVthe
p569
aVwest
p570
aVbank
p571
ag209
aVof
p572
aVnablus
p573
aV,
ag210
ag211
aVviolations
p574
aVof
p575
aVthe
p576
ag213
aVand
p577
ag214
aVrights
p578
aVof
p579
aVthe
p580
ag216
aVcivilians
p581
aVtherein
p582
aV,
ag218
aVthe
p583
ag219
ag220
ag221
aVin
p584
aVthe
p585
aVoccupied
p586
ag222
ag223
aV<
ag224
aV>
aV<
aVp
aV>
aV<
ag225
aV>
aV<
aVp
aV>
aV*
ag226
aVstate
p587
aVof
p588
aVthe
p589
ag227
aVrights
p590
aVcouncil
p591
aV.
aV<
ag229
aV>
aV<
aVp
aV>
ag230
ag231
aV2
aV<
ag232
aV>
aV<
aVp
aV>
aVand
p592
ag233
ag234
aVefforts
p593
aV,
aVincluding
p594
aVthe
p595
aVannapolis
p596
aVconference
p597
aVand
p598
aVthe
p599
ag237
aVdonors
p600
aV&
aV#
ag239
aV;
ag240
aVfor
p601
aVthe
p602
ag241
ag242
aV,
aVaimed
p603
aVat
p604
aVinvigorating
p605
aVthe
p606
ag245
ag246
aVand
p607
aVestablishing
p608
aVa
ag248
aV,
ag249
aV,
ag250
aVand
p609
ag251
ag252
ag253
aVby
p610
aVthe
p611
ag254
aVof
p612
ag255
aV,
aV<
ag256
aV>
aV<
aVp
aV>
aV<
aVi
aV>
aVrecognizing
p613
aV<
ag258
aV>
aV<
aVi
aV>
aValso
p614
aV<
ag259
aV>
aVthat
p615
aVthe
p616
aVisraeli
p617
ag260
aVimposed
p618
aVon
p619
aVthe
p620
aVoccupied
p621
aVgaza
p622
aVstrip
p623
aV,
aVincluding
p624
aVthe
p625
ag263
aVof
p626
aVthe
p627
ag264
aVcrossings
p628
aVand
p629
aVthe
p630
aVcutting
p631
aVof
p632
aVthe
p633
ag267
aVof
p634
ag268
aV,
ag269
aVand
p635
ag270
aV,
aVconstitutes
p636
ag272
ag273
aVof
p637
aVthe
p638
ag274
aVcivilians
p639
aVand
p640
aVleads
p641
aVto
p642
ag277
ag278
aVand
p643
ag279
aVconsequences
p644
aV,
aV<
ag281
aV>
aV<
aVp
aV>
aV1
aV.
aV<
aVi
aV>
aVexpresses
p645
ag283
ag284
aV<
ag285
aV>
aVat
p646
aVthe
p647
aVrepeated
p648
aVisraeli
p649
ag287
aVattacks
p650
aVcarried
p651
aVout
p652
aVin
p653
aVthe
p654
aVoccupied
p655
ag290
ag291
aV,
ag292
aVin
p656
aVthe
p657
aVoccupied
p658
aVgaza
p659
aVstrip
p660
aV,
aVwhich
p661
aVhave
p662
aVresulted
p663
aVin
p664
ag294
aVof
p665
ag295
aVand
p666
aVinjuries
p667
aVamong
p668
ag297
aVcivilians
p669
aV,
aVincluding
p670
aVwomen
p671
aVand
p672
aVchildren
p673
aV;
aV<
ag302
aV>
aV<
aVp
aV>
aV2
aV.
aV<
aVi
aV>
aVcalls
p674
aV<
ag303
aV>
aV<
aVi
aV>
aVfor
p675
aV<
ag304
aV>
ag305
ag306
ag307
aVto
p676
aVput
p677
aVan
p678
ag308
ag309
aVto
p679
aVthe
p680
ag310
aVviolations
p681
aVcommitted
p682
aVby
p683
aVthe
p684
aVoccupying
p685
ag314
aV,
aVisrael
p686
aV,
aVin
p687
aVthe
p688
aVoccupied
p689
ag315
ag316
aV,
aVincluding
p690
aVthe
p691
ag318
aVof
p692
ag319
aVand
p693
aVrepeated
p694
aVisraeli
p695
ag321
aVattacks
p696
aVand
p697
aVincursions
p698
aVtherein
p699
aVand
p700
aVthe
p701
ag324
aVof
p702
aVthe
p703
aVoccupied
p704
aVgaza
p705
aVstrip
p706
aV;
aV<
ag325
aV>
aV<
aVp
aV>
aV3
aV.
aV<
aVi
aV>
aVdemands
p707
aV<
ag327
aV>
aVthat
p708
aVthe
p709
aVoccupying
p710
ag329
aV,
aVisrael
p711
aV,
ag330
ag331
aVthe
p712
ag332
aVit
p713
aVhas
p714
aVimposed
p715
aVon
p716
aVthe
p717
aVoccupied
p718
aVgaza
p719
aVstrip
p720
aV,
ag334
aVcontinued
p721
ag336
aVof
p722
ag337
aV,
ag338
aVand
p723
ag339
aVand
p724
ag340
aVthe
p725
ag341
aVcrossings
p726
aV;
aV<
ag343
aV>
aV<
aVp
aV>
aV4
aV.
aV<
aVi
aV>
aVcalls
p727
aV<
ag344
aV>
aV<
aVi
aV>
aVfor
p728
aV<
ag345
aV>
ag346
ag347
aVof
p729
aVthe
p730
ag348
aVcivilians
p731
aVin
p732
aVthe
p733
aVoccupied
p734
ag350
ag351
aVin
p735
ag352
aVwith
p736
ag353
aVrights
p737
ag355
aVand
p738
ag356
ag357
ag358
aV;
aV<
ag359
aV>
aV<
aVp
aV>
aV5
aV.
aV<
aVi
aV>
aVurges
p739
aV<
ag361
aV>
aVall
p740
aVparties
p741
aVconcerned
p742
aVto
p743
ag364
aVthe
p744
aVrules
p745
aVof
p746
ag366
aVrights
p747
ag368
aVand
p748
ag369
ag370
ag371
aVand
p749
aVto
p750
ag372
aVfrom
p751
ag373
aVagainst
p752
aVthe
p753
ag374
ag375
aV;
aV<
ag376
aV>
aV<
aVp
aV>
aV6
aV.
aV<
aVi
aV>
aVrequests
p754
aV<
ag378
aV>
aVthe
p755
aVunited
p756
aVnations
p757
aVhigh
p758
aVcommissioner
p759
aVfor
p760
ag381
aVrights
p761
aVto
p762
ag383
aVto
p763
aVthe
p764
ag384
aV,
aVat
p765
aVits
p766
aVnext
p767
ag385
aV,
aVon
p768
aVthe
p769
ag386
aVmade
p770
aVin
p771
aVthe
p772
ag387
aVof
p773
aVthe
p774
ag388
ag389
aV.
aV<
ag390
aV>
aV<
aVp
aV>
ag391
ag392
aV-
aV<
ag393
aV>
aV<
ag94
aV>
aV<
ag89
aV>
asba(ilda.document
document
p775
(dp776
g75
S'11thSpecialSession_Draft.html'
p777
sg5
g6
((lp778
Vbulgaria*
p779
aV,
aV''
p780
aVge.09-13351
p781
aVrepublic*
p782
aV/head
p783
aV!
aV%
aVa/hrc/s-11/l.2
p784
aV/i
p785
aVsweden*
p786
aV)
aV(
aV*
aV/b
p787
aV.
aVlatvia*
p788
aV;
aV:
aV/p
p789
aV...
p790
aV``
p791
aV4.01
p792
aVs-11/
p793
aV/title
p794
aVluxembourg*
p795
aV//www.w3.org/tr/html4/loose.dtd
p796
aVlithuania*
p797
aV/html
p798
aVgreece*
p799
aVestonia*
p800
aVcyprus*
p801
aVfinland*
p802
aVtext/html
p803
aVdenmark*
p804
aVpoland*
p805
aVtransitional//en
p806
aVireland*
p807
aV-//w3c//dtd
p808
aVromania*
p809
aVhungary*
p810
aV/body
p811
aVspain*
p812
aVbelgium*
p813
atRp814
sg96
V<!DOCTYPE html PUBLIC "-//W3C//DTD HTML 4.01 Transitional//EN"\u000a"http://www.w3.org/TR/html4/loose.dtd">\u000a<html><head><title>0910284</title>\u000a<meta http-equiv="Content-Type" content="text/html; charset=UTF-8">\u000a</head>\u000a<body><p><b>UNITED \u000aNATIONS \u000a</b></p>\u000a<p> <b>A\u000a</b> \u000a</p>\u000a<p><b>General Assembly</b> Distr. \u000aLIMITED \u000a</p>\u000a<p>A/HRC/S-11/L.2 \u000a25 May 2009 \u000a</p>\u000a<p>Original:  ENGLISH \u000a</p>\u000a<p> \u000aHUMAN RIGHTS COUNCIL \u000aEleventh special session \u000a26 May 2009 \u000a</p>\u000a<p><b>Austria</b>*<b>, Belgium*, Bosnia and Herzegovina, Bulgaria*, Canada, Chile, Cyprus*, Czech \u000aRepublic*, Denmark*, Estonia*, Finland*, France, Germany, Greece*, Hungary*, \u000a</b></p>\u000a<p><b>Ireland*, Italy, Latvia*, Lithuania*, Luxembourg*, Mauritius, Mexico, Netherlands, \u000aPoland*, Romania*, Spain*, Slovenia, Slovakia, Sweden*, Switzerland, United Kingdom of \u000a</b></p>\u000a<p><b>Great Britain and Northern Ireland:  draft decision \u000a \u000a</b></p>\u000a<p><b>S-11/...  Draft decision on the human rights situation in Sri Lanka \u000a</b></p>\u000a<p> \u000a</p>\u000a<p><i>The Human Rights Council, \u000a</i></p>\u000a<p> \u000a</p>\u000a<p> 1.  <i>Takes note</i> that the Sri Lankan Government announced the end of hostilities in the \u000a</p>\u000a<p>North of Sri Lanka; \u000a</p>\u000a<p> \u000a</p>\u000a<p> 2.  <i>Deplores</i> the significant loss of human lives and suffering in the context of the \u000a</p>\u000a<p>current situation;  \u000a</p>\u000a<p> \u000a</p>\u000a<p>                                                 \u000a<b>*</b> Non-member State of the Human Rights Council. \u000a</p>\u000a<p>GE.09-13351 </p>\u000a\u000a<p>A/HRC/S-11/L.2 \u000apage 2 \u000a \u000a 3.  <i>Unequivocally condemns</i> all attacks that the LTTE (Liberation Tigers of Tamil \u000a</p>\u000a<p>Eelam) launched on the civilian population and its practice of using civilians as human shields; \u000a</p>\u000a<p> \u000a</p>\u000a<p> 4.  <i>Urges</i> the Government of Sri Lanka to cooperate fully with humanitarian \u000a</p>\u000a<p>organizations, including the United Nations and the International Committee of the Red Cross by \u000a</p>\u000a<p>ensuring full, safe and unhindered access of humanitarian assistance to all persons in need \u000a</p>\u000a<p>throughout the country; \u000a</p>\u000a<p> \u000a</p>\u000a<p> 5.  <i>Recalls</i> that States have the primary duty and responsibility to provide protection and \u000a</p>\u000a<p>humanitarian assistance to all segments of the population, including Internally Displaced Persons \u000a</p>\u000a<p>(IDPs), without discrimination; \u000a</p>\u000a<p> \u000a</p>\u000a<p>6.  <i>Calls</i> <i>on</i> the Government of Sri Lanka to ensure the freedom of movements of IDPs, \u000a</p>\u000a<p>access to safe drinking water and sanitation, as well as other human rights such as the right to \u000a</p>\u000a<p>food and the right to the highest attainable level of health; \u000a</p>\u000a<p> \u000a</p>\u000a<p>7.  <i>Calls on</i> the Government of Sri Lanka to facilitate the safe return of IDPs to their \u000a</p>\u000a<p>homes as soon as is practically possible and following on to its commitment to return 80% of \u000a</p>\u000a<p>IDPs for their home by the end of the year; \u000a</p>\u000a<p> \u000a</p>\u000a<p>8.  <i>Calls on</i> the government of Sri Lanka to step up its efforts for the rehabilitation of \u000a</p>\u000a<p>former child soldiers in cooperation with relevant United Nations agencies and <i>urges</i> the \u000a</p>\u000a<p>Government of Sri Lanka to take all feasible measures to ensure the demobilization and effective \u000a</p>\u000a<p>disarmament of children used in armed conflicts and to implement effective measures for their \u000a</p>\u000a<p>rehabilitation, physical and psychological recovery and reintegration into society, in particular \u000a</p>\u000a<p>through educational measures, taking into account the rights and the specific needs and \u000a</p>\u000a<p>capacities of girls; \u000a</p>\u000a<p> \u000a</p>\u000a<p>9. <i>Urges</i> the Government of Sri Lanka to continue strengthening its activities to ensure \u000a</p>\u000a<p>that there is no discrimination against ethnic minorities in the enjoyment of the full range of \u000a</p>\u000a<p>human rights; \u000a</p>\u000a<p> </p>\u000a\u000a<p>A/HRC/S-11/L.2 \u000apage 3 \u000a</p>\u000a<p> \u000a 10. <i>Welcomes</i> the cooperation of Sri Lanka with the thematic special procedures of the \u000a</p>\u000a<p>Council, <i>encourages</i> the government to strengthen its cooperation with them in addressing \u000a</p>\u000a<p>the current situation; \u000a</p>\u000a<p> \u000a</p>\u000a<p> 11. <i>Is gravely concerned</i> by violations of Human Rights and International Humanitarian \u000a</p>\u000a<p>Law committed during the armed conflict in Sri Lanka and their impact on the civilian \u000a</p>\u000a<p>population especially women, children and vulnerable groups; \u000a</p>\u000a<p> \u000a</p>\u000a<p>12. <i>Stresses</i> the importance of combating impunity and calls on the government of Sri \u000a</p>\u000a<p>Lanka to investigate all allegations and bring to justice, in accordance with international \u000a</p>\u000a<p>standards, perpetrators of violations of human rights and of international humanitarian law, \u000a</p>\u000a<p>including hostage taking, torture, enforced disappearances and extrajudicial, summary or \u000a</p>\u000a<p>arbitrary executions, and to increase its efforts to further prevent such violations; \u000a</p>\u000a<p>13. <i>Urges</i> the international community to support reconstruction in Sri Lanka and calls \u000a</p>\u000a<p>on the Government of Sri Lanka to ensure an inclusive process of post-conflict \u000a</p>\u000a<p>reconstruction;  \u000a</p>\u000a<p>14. <i>Calls on</i> the Government of Sri Lanka to take measures to ensure full respect for the \u000a</p>\u000a<p>right to freedom of opinion and expression and protect human rights defenders, and \u000a</p>\u000a<p>effectively investigate allegations of attacks on journalists, media personnel and human \u000a</p>\u000a<p>rights defenders and prosecute those responsible;  \u000a</p>\u000a<p>15. <i>Welcomes</i> the visit of the Secretary General of the United Nations to Sri Lanka and \u000a</p>\u000a<p>encourages the government of Sri Lanka to cooperate with the Council and other relevant \u000a</p>\u000a<p>bodies to address the human rights and humanitarian situation, including through increased \u000a</p>\u000a<p>technical assistance of the Office of the High Commissioner for Human Rights; \u000a</p>\u000a<p>   16. <i>Requests</i> the United Nations High Commissioner for Human Rights to report to the \u000a</p>\u000a<p>Council, at its 12th session, on the progress made towards the implementation of this \u000a</p>\u000a<p>decision. \u000a</p>\u000a<p> \u000a        - - - - - </p>\u000a\u000a</body></html>
p815
sg98
(lp816
Vdoctype
p817
aVhtml
p818
aVpublic
p819
aVhtml
p820
aV''
p821
aVhttp
p822
aV''
p823
aVhtml
p824
aVhead
p825
aVtitle
p826
aV0910284
p827
aVmeta
p828
aVhttp-equiv=
p829
aV''
p830
aVcontent-type
p831
aV''
p832
aVcontent=
p833
aV''
p834
aVcharset=utf-8
p835
aV''
p836
aVbody
p837
aVunite
p838
aVnation
p839
aV/b
p840
aV/p
p841
aVgeneral
p842
aVassembly
p843
aV/b
p844
aVdistr
p845
aVlimit
p846
aV/p
p847
aV25
p848
aV2009
p849
aV/p
p850
aVoriginal
p851
aVenglish
p852
aV/p
p853
aVright
p854
aVeleventh
p855
aVspecial
p856
aVsession
p857
aV26
p858
aV2009
p859
aV/p
p860
aV/b
p861
aVczech
p862
aV/b
p863
aV/p
p864
aVunite
p865
aV/b
p866
aV/p
p867
aVdraft
p868
aVdecision
p869
aV/b
p870
aV/p
p871
aVdraft
p872
aVdecision
p873
aVright
p874
aVsituation
p875
aV/b
p876
aV/p
p877
aV/p
p878
aVright
p879
aV/p
p880
aV/p
p881
aVnote
p882
aV/i
p883
aVlankan
p884
aVgovernment
p885
aVannounce
p886
aVend
p887
aVhostility
p888
aV/p
p889
aVnorth
p890
aV/p
p891
aV/p
p892
aVdeplore
p893
aV/i
p894
aVsignificant
p895
aVloss
p896
aVlive
p897
aVsuffer
p898
aVcontext
p899
aV/p
p900
aVcurrent
p901
aVsituation
p902
aV/p
p903
aV/p
p904
aV/b
p905
aVnon-member
p906
aVstate
p907
aVhuman
p908
aVright
p909
aV/p
p910
aV/p
p911
aVa/hrc/s-11/l.2
p912
aVpage
p913
aVunequivocally
p914
aVcondemn
p915
aV/i
p916
aVattack
p917
aVtiger
p918
aV/p
p919
aVeelam
p920
aVlaunch
p921
aVcivilian
p922
aVpopulation
p923
aVpractice
p924
aVuse
p925
aVcivilian
p926
aVhuman
p927
aVshield
p928
aV/p
p929
aV/p
p930
aVurge
p931
aV/i
p932
aVgovernment
p933
aVcooperate
p934
aVfully
p935
aVhumanitarian
p936
aV/p
p937
aVorganization
p938
aVinclude
p939
aVunite
p940
aVnation
p941
aV/p
p942
aVensure
p943
aVsafe
p944
aVunhindered
p945
aVaccess
p946
aVhumanitarian
p947
aVassistance
p948
aVperson
p949
aVneed
p950
aV/p
p951
aVcountry
p952
aV/p
p953
aV/p
p954
aVrecall
p955
aV/i
p956
aVstate
p957
aVprimary
p958
aVduty
p959
aVresponsibility
p960
aVprovide
p961
aVprotection
p962
aV/p
p963
aVhumanitarian
p964
aVassistance
p965
aVsegment
p966
aVpopulation
p967
aVinclude
p968
aVinternally
p969
aVdisplace
p970
aVperson
p971
aV/p
p972
aVidp
p973
aVdiscrimination
p974
aV/p
p975
aV/p
p976
aV/i
p977
aV/i
p978
aVgovernment
p979
aVensure
p980
aVfreedom
p981
aVmovement
p982
aVidp
p983
aV/p
p984
aVaccess
p985
aVsafe
p986
aVdrink
p987
aVwater
p988
aVsanitation
p989
aVhuman
p990
aVright
p991
aVright
p992
aV/p
p993
aVfood
p994
aVright
p995
aVhighest
p996
aVattainable
p997
aVlevel
p998
aVhealth
p999
aV/p
p1000
aV/p
p1001
aV/i
p1002
aVgovernment
p1003
aVfacilitate
p1004
aVsafe
p1005
aVreturn
p1006
aVidp
p1007
aV/p
p1008
aVhome
p1009
aVsoon
p1010
aVpractically
p1011
aVpossible
p1012
aVfollow
p1013
aVcommitment
p1014
aVreturn
p1015
aV80
p1016
aV/p
p1017
aVidp
p1018
aVhome
p1019
aVend
p1020
aVyear
p1021
aV/p
p1022
aV/p
p1023
aV/i
p1024
aVgovernment
p1025
aVstep
p1026
aVeffort
p1027
aVrehabilitation
p1028
aV/p
p1029
aVchild
p1030
aVsoldier
p1031
aVcooperation
p1032
aVrelevant
p1033
aVunite
p1034
aVnation
p1035
aVagency
p1036
aVurge
p1037
aV/i
p1038
aV/p
p1039
aVgovernment
p1040
aVfeasible
p1041
aVmeasure
p1042
aVensure
p1043
aVdemobilization
p1044
aVeffective
p1045
aV/p
p1046
aVdisarmament
p1047
ag301
aVuse
p1048
aVarm
p1049
aVconflict
p1050
aVimplement
p1051
aVeffective
p1052
aVmeasure
p1053
aV/p
p1054
aVrehabilitation
p1055
aVphysical
p1056
aVpsychological
p1057
aVrecovery
p1058
aVreintegration
p1059
aVsociety
p1060
aVparticular
p1061
aV/p
p1062
aVeducational
p1063
aVmeasure
p1064
aVaccount
p1065
aVright
p1066
aVspecific
p1067
aVneed
p1068
aV/p
p1069
aVcapacity
p1070
aVgirl
p1071
aV/p
p1072
aV/p
p1073
aVurge
p1074
aV/i
p1075
aVgovernment
p1076
aVcontinue
p1077
aVstrengthen
p1078
aVactivity
p1079
aVensure
p1080
aV/p
p1081
aVdiscrimination
p1082
aVethnic
p1083
aVminority
p1084
aVenjoyment
p1085
aVrange
p1086
aV/p
p1087
aVhuman
p1088
aVright
p1089
aV/p
p1090
aV/p
p1091
aVa/hrc/s-11/l.2
p1092
aVpage
p1093
aV/p
p1094
aV10
p1095
aVwelcome
p1096
aV/i
p1097
aVcooperation
p1098
aVthematic
p1099
aVspecial
p1100
aVprocedure
p1101
aV/p
p1102
aVencourage
p1103
aV/i
p1104
aVgovernment
p1105
aVstrengthen
p1106
aVcooperation
p1107
aVaddress
p1108
aV/p
p1109
aVcurrent
p1110
aVsituation
p1111
aV/p
p1112
aV/p
p1113
aV11
p1114
aVgravely
p1115
aVconcern
p1116
aV/i
p1117
aVviolation
p1118
aVhuman
p1119
aVright
p1120
aVinternational
p1121
aVhumanitarian
p1122
aV/p
p1123
aVlaw
p1124
ag312
aVarm
p1125
aVconflict
p1126
aVimpact
p1127
aVcivilian
p1128
aV/p
p1129
aVpopulation
p1130
aVespecially
p1131
aVwoman
p1132
ag301
aVvulnerable
p1133
aVgroup
p1134
aV/p
p1135
aV/p
p1136
aV12
p1137
aVstress
p1138
aV/i
p1139
aVimportance
p1140
aVcombat
p1141
aVimpunity
p1142
aVgovernment
p1143
aV/p
p1144
aVinvestigate
p1145
aVallegation
p1146
aVbring
p1147
aVjustice
p1148
aVaccordance
p1149
aVinternational
p1150
aV/p
p1151
aVstandard
p1152
aVperpetrator
p1153
aVviolation
p1154
aVhuman
p1155
aVright
p1156
aVinternational
p1157
aVhumanitarian
p1158
aVlaw
p1159
aV/p
p1160
aVinclude
p1161
aVhostage
p1162
aVtorture
p1163
aVenforce
p1164
aVdisappearance
p1165
aVextrajudicial
p1166
aVsummary
p1167
aV/p
p1168
aVarbitrary
p1169
aVexecution
p1170
aVincrease
p1171
aVeffort
p1172
aVprevent
p1173
aVviolation
p1174
aV/p
p1175
aV13
p1176
aVurge
p1177
aV/i
p1178
aVinternational
p1179
aVcommunity
p1180
aVsupport
p1181
aVreconstruction
p1182
aV/p
p1183
aVgovernment
p1184
aVensure
p1185
aVinclusive
p1186
aVprocess
p1187
aVpost-conflict
p1188
aV/p
p1189
aVreconstruction
p1190
aV/p
p1191
aV14
p1192
aV/i
p1193
aVgovernment
p1194
aVmeasure
p1195
aVensure
p1196
aVrespect
p1197
aV/p
p1198
aVright
p1199
aVfreedom
p1200
aVopinion
p1201
aVexpression
p1202
aVprotect
p1203
aVhuman
p1204
aVright
p1205
aVdefender
p1206
aV/p
p1207
aVeffectively
p1208
aVinvestigate
p1209
aVallegation
p1210
aVattack
p1211
aVjournalist
p1212
aVmedium
p1213
aVpersonnel
p1214
aVhuman
p1215
aV/p
p1216
aVright
p1217
aVdefender
p1218
aVprosecute
p1219
aVresponsible
p1220
aV/p
p1221
aV15
p1222
aVwelcome
p1223
aV/i
p1224
aVvisit
p1225
aVsecretary
p1226
aVgeneral
p1227
aVunite
p1228
aVnation
p1229
aV/p
p1230
aVencourage
p1231
aVgovernment
p1232
aVsri
p1233
aVcooperate
p1234
aVrelevant
p1235
aV/p
p1236
aVbody
p1237
aVaddress
p1238
aVhuman
p1239
aVright
p1240
aVhumanitarian
p1241
aVsituation
p1242
aVinclude
p1243
aVincrease
p1244
aV/p
p1245
aVtechnical
p1246
aVassistance
p1247
aVoffice
p1248
aVhuman
p1249
aVright
p1250
aV/p
p1251
aV16
p1252
aVrequest
p1253
aV/i
p1254
aVunite
p1255
aVnation
p1256
aVhigh
p1257
aVcommissioner
p1258
aVhuman
p1259
aVright
p1260
aVreport
p1261
aV/p
p1262
aV12th
p1263
aVsession
p1264
aVprogress
p1265
aVimplementation
p1266
aV/p
p1267
aVdecision
p1268
aV/p
p1269
aV/p
p1270
aS'council'
p1271
aS'council'
p1272
aS'council'
p1273
aS'united nations'
p1274
aS'united nations'
p1275
aS'united nations'
p1276
aS'united nations'
p1277
aS'united nations'
p1278
aS'united nations'
p1279
aS'united nations'
p1280
aS'united nations'
p1281
aS'human rights council'
p1282
aS'human rights council'
p1283
aS'human rights council'
p1284
aS'united nations high commissioner for human rights'
p1285
aS'ltte'
p1286
aS'liberation tigers of tamil'
p1287
aS'international committee of the red cross'
p1288
aS'sri lanka'
p1289
aS'sri lanka'
p1290
aS'sri lanka'
p1291
aS'sri lanka'
p1292
aS'sri lanka'
p1293
aS'sri lanka'
p1294
aS'sri lanka'
p1295
aS'sri lanka'
p1296
aS'sri lanka'
p1297
aS'sri lanka'
p1298
aS'sri lanka'
p1299
aS'sri lanka'
p1300
aS'sri lanka'
p1301
aS'sri lanka'
p1302
aS'sri lanka'
p1303
aS'sri lanka'
p1304
aS'mexico'
p1305
aS'canada'
p1306
aS'united kingdom'
p1307
aS'herzegovina'
p1308
aS'switzerland'
p1309
aS'germany'
p1310
aS'bosnia'
p1311
aS'netherlands'
p1312
aS'slovenia'
p1313
aS'mauritius'
p1314
aS'chile'
p1315
aS'slovakia'
p1316
aS'france'
p1317
aS'italy'
p1318
aS'austria'
p1319
aS'great britain'
p1320
aS'northern ireland'
p1321
asg426
(ilda.entities
entities
p1322
(dp1323
g69
(lp1324
(Vcouncil
I6
tp1325
a(Vunited nations
I4
tp1326
a(Vunited nations
I4
tp1327
a(Vhuman rights council
I3
tp1328
a(Vunited nations high commissioner for human rights
I1
tp1329
a(Vltte
I1
tp1330
a(Vliberation tigers of tamil
I1
tp1331
a(Vinternational committee of the red cross
I1
tp1332
a(Vhuman rights and international humanitarian <
I0
tp1333
asg440
(lp1334
(S'child'
I3
tp1335
a(S'armed conflict'
I2
tp1336
a(S'attack'
I2
tp1337
a(S'freedom'
I2
tp1338
a(S'discrimination'
I2
tp1339
a(S'justice'
I1
tp1340
a(S'health'
I1
tp1341
a(S'journalist'
I1
tp1342
a(S'women'
I1
tp1343
a(S'torture'
I1
tp1344
a(S'water'
I1
tp1345
a(S'education'
I1
tp1346
asg67
(lp1347
(Vlanka
I17
tp1348
a(Vsri lanka
I16
tp1349
a(Vmexico
I1
tp1350
a(Vcanada
I1
tp1351
a(Vunited kingdom
I1
tp1352
a(Vherzegovina
I1
tp1353
a(Vswitzerland
I1
tp1354
a(Vgermany
I1
tp1355
a(Vbosnia
I1
tp1356
a(Vnetherlands
I1
tp1357
a(Vslovenia
I1
tp1358
a(Vmauritius
I1
tp1359
a(Vchile
I1
tp1360
a(Vslovakia
I1
tp1361
a(Vfrance
I1
tp1362
a(Vitaly
I1
tp1363
a(Vaustria
I1
tp1364
a(Vgreat britain
I1
tp1365
a(Vnorthern ireland
I1
tp1366
asg65
(lp1367
sbsg461
(lp1368
V<
aV!
ag817
ag818
ag819
ag791
ag808
ag820
ag792
ag806
ag780
ag821
ag822
aV:
ag796
ag823
aV>
aV<
ag824
aV>
aV<
ag825
aV>
aV<
ag826
aV>
ag827
aV<
ag794
aV>
aV<
ag828
ag829
ag830
ag831
ag832
ag833
ag834
ag803
aV;
ag835
ag836
aV>
aV<
ag783
aV>
aV<
ag837
aV>
aV<
aVp
aV>
aV<
aVb
aV>
aVunited
p1369
aVnations
p1370
aV<
ag787
aV>
aV<
ag789
aV>
aV<
aVp
aV>
aV<
aVb
aV>
aVa
aV<
ag840
aV>
aV<
ag841
aV>
aV<
aVp
aV>
aV<
aVb
aV>
ag842
ag843
aV<
ag844
aV>
ag845
aV.
aVlimited
p1371
aV<
ag847
aV>
aV<
aVp
aV>
ag784
ag848
aVmay
p1372
ag849
aV<
ag850
aV>
aV<
aVp
aV>
ag851
aV:
ag852
aV<
ag853
aV>
aV<
aVp
aV>
aVhuman
p1373
aVrights
p1374
aVcouncil
p1375
ag855
ag856
ag857
ag858
aVmay
p1376
ag859
aV<
ag860
aV>
aV<
aVp
aV>
aV<
aVb
aV>
aVaustria
p1377
aV<
ag861
aV>
aV*
aV<
aVb
aV>
aV,
ag813
aV,
aVbosnia
p1378
aVand
p1379
aVherzegovina
p1380
aV,
ag779
aV,
aVcanada
p1381
aV,
aVchile
p1382
aV,
ag801
aV,
ag862
ag782
aV,
ag804
aV,
ag800
aV,
ag802
aV,
aVfrance
p1383
aV,
aVgermany
p1384
aV,
ag799
aV,
ag810
aV,
aV<
ag863
aV>
aV<
ag864
aV>
aV<
aVp
aV>
aV<
aVb
aV>
ag807
aV,
aVitaly
p1385
aV,
ag788
aV,
ag797
aV,
ag795
aV,
aVmauritius
p1386
aV,
aVmexico
p1387
aV,
aVnetherlands
p1388
aV,
ag805
aV,
ag809
aV,
ag812
aV,
aVslovenia
p1389
aV,
aVslovakia
p1390
aV,
ag786
aV,
aVswitzerland
p1391
aV,
aVunited
p1392
aVkingdom
p1393
aVof
p1394
aV<
ag866
aV>
aV<
ag867
aV>
aV<
aVp
aV>
aV<
aVb
aV>
aVgreat
p1395
aVbritain
p1396
aVand
p1397
aVnorthern
p1398
aVireland
p1399
aV:
ag868
ag869
aV<
ag870
aV>
aV<
ag871
aV>
aV<
aVp
aV>
aV<
aVb
aV>
ag793
ag790
ag872
ag873
aVon
p1400
aVthe
p1401
aVhuman
p1402
aVrights
p1403
ag875
aVin
p1404
aVsri
p1405
aVlanka
p1406
aV<
ag876
aV>
aV<
ag877
aV>
aV<
aVp
aV>
aV<
ag878
aV>
aV<
aVp
aV>
aV<
aVi
aV>
aVthe
p1407
aVhuman
p1408
aVrights
p1409
aVcouncil
p1410
aV,
aV<
ag785
aV>
aV<
ag880
aV>
aV<
aVp
aV>
aV<
ag881
aV>
aV<
aVp
aV>
aV1
aV.
aV<
aVi
aV>
aVtakes
p1411
ag882
aV<
ag883
aV>
aVthat
p1412
aVthe
p1413
aVsri
p1414
ag884
ag885
aVannounced
p1415
aVthe
p1416
ag887
aVof
p1417
aVhostilities
p1418
aVin
p1419
aVthe
p1420
aV<
ag889
aV>
aV<
aVp
aV>
ag890
aVof
p1421
aVsri
p1422
aVlanka
p1423
aV;
aV<
ag891
aV>
aV<
aVp
aV>
aV<
ag892
aV>
aV<
aVp
aV>
aV2
aV.
aV<
aVi
aV>
aVdeplores
p1424
aV<
ag894
aV>
aVthe
p1425
ag895
ag896
aVof
p1426
aVhuman
p1427
aVlives
p1428
aVand
p1429
aVsuffering
p1430
aVin
p1431
aVthe
p1432
ag899
aVof
p1433
aVthe
p1434
aV<
ag900
aV>
aV<
aVp
aV>
ag901
ag902
aV;
aV<
ag903
aV>
aV<
aVp
aV>
aV<
ag904
aV>
aV<
aVp
aV>
aV<
aVb
aV>
aV*
aV<
ag905
aV>
ag906
ag907
aVof
p1435
aVthe
p1436
ag908
aVrights
p1437
aVcouncil
p1438
aV.
aV<
ag910
aV>
aV<
aVp
aV>
ag781
aV<
ag911
aV>
aV<
aVp
aV>
ag912
ag913
aV2
aV3
aV.
aV<
aVi
aV>
ag914
aVcondemns
p1439
aV<
ag916
aV>
aVall
p1440
aVattacks
p1441
aVthat
p1442
aVthe
p1443
aVltte
p1444
aV(
aVliberation
p1445
aVtigers
p1446
aVof
p1447
aVtamil
p1448
aV<
ag919
aV>
aV<
aVp
aV>
ag920
aV)
aVlaunched
p1449
aVon
p1450
aVthe
p1451
ag922
ag923
aVand
p1452
aVits
p1453
ag924
aVof
p1454
aVusing
p1455
aVcivilians
p1456
aVas
p1457
ag927
aVshields
p1458
aV;
aV<
ag929
aV>
aV<
aVp
aV>
aV<
ag930
aV>
aV<
aVp
aV>
aV4
aV.
aV<
aVi
aV>
aVurges
p1459
aV<
ag932
aV>
aVthe
p1460
ag933
aVof
p1461
aVsri
p1462
aVlanka
p1463
aVto
p1464
ag934
ag935
aVwith
p1465
ag936
aV<
ag937
aV>
aV<
aVp
aV>
aVorganizations
p1466
aV,
aVincluding
p1467
aVthe
p1468
aVunited
p1469
aVnations
p1470
aVand
p1471
aVthe
p1472
aVinternational
p1473
aVcommittee
p1474
aVof
p1475
aVthe
p1476
aVred
p1477
aVcross
p1478
aVby
p1479
aV<
ag942
aV>
aV<
aVp
aV>
aVensuring
p1480
aVfull
p1481
aV,
ag944
aVand
p1482
ag945
ag946
aVof
p1483
ag947
ag948
aVto
p1484
aVall
p1485
aVpersons
p1486
aVin
p1487
ag950
aV<
ag951
aV>
aV<
aVp
aV>
aVthroughout
p1488
aVthe
p1489
ag952
aV;
aV<
ag953
aV>
aV<
aVp
aV>
aV<
ag954
aV>
aV<
aVp
aV>
aV5
aV.
aV<
aVi
aV>
aVrecalls
p1490
aV<
ag956
aV>
aVthat
p1491
aVstates
p1492
aVhave
p1493
aVthe
p1494
ag958
ag959
aVand
p1495
ag960
aVto
p1496
ag961
ag962
aVand
p1497
aV<
ag963
aV>
aV<
aVp
aV>
ag964
ag965
aVto
p1498
aVall
p1499
aVsegments
p1500
aVof
p1501
aVthe
p1502
ag967
aV,
aVincluding
p1503
ag969
aVdisplaced
p1504
aVpersons
p1505
aV<
ag972
aV>
aV<
aVp
aV>
aV(
aVidps
p1506
aV)
aV,
aVwithout
p1507
ag974
aV;
aV<
ag975
aV>
aV<
aVp
aV>
aV<
ag976
aV>
aV<
aVp
aV>
aV6
aV.
aV<
aVi
aV>
aVcalls
p1508
aV<
ag977
aV>
aV<
aVi
aV>
aVon
p1509
aV<
ag978
aV>
aVthe
p1510
ag979
aVof
p1511
aVsri
p1512
aVlanka
p1513
aVto
p1514
ag980
aVthe
p1515
ag981
aVof
p1516
aVmovements
p1517
aVof
p1518
aVidps
p1519
aV,
aV<
ag984
aV>
aV<
aVp
aV>
ag985
aVto
p1520
ag986
aVdrinking
p1521
ag988
aVand
p1522
ag989
aV,
aVas
p1523
aVwell
p1524
aVas
p1525
aVother
p1526
ag990
aVrights
p1527
aVsuch
p1528
aVas
p1529
aVthe
p1530
ag992
aVto
p1531
aV<
ag993
aV>
aV<
aVp
aV>
ag994
aVand
p1532
aVthe
p1533
ag995
aVto
p1534
aVthe
p1535
ag996
ag997
ag998
aVof
p1536
ag999
aV;
aV<
ag1000
aV>
aV<
aVp
aV>
aV<
ag1001
aV>
aV<
aVp
aV>
aV7
aV.
aV<
aVi
aV>
aVcalls
p1537
aVon
p1538
aV<
ag1002
aV>
aVthe
p1539
ag1003
aVof
p1540
aVsri
p1541
aVlanka
p1542
aVto
p1543
ag1004
aVthe
p1544
ag1005
ag1006
aVof
p1545
aVidps
p1546
aVto
p1547
aVtheir
p1548
aV<
ag1008
aV>
aV<
aVp
aV>
aVhomes
p1549
aVas
p1550
ag1010
aVas
p1551
aVis
p1552
ag1011
ag1012
aVand
p1553
aVfollowing
p1554
aVon
p1555
aVto
p1556
aVits
p1557
ag1014
aVto
p1558
ag1015
ag1016
aV%
aVof
p1559
aV<
ag1017
aV>
aV<
aVp
aV>
aVidps
p1560
aVfor
p1561
aVtheir
p1562
ag1019
aVby
p1563
aVthe
p1564
ag1020
aVof
p1565
aVthe
p1566
ag1021
aV;
aV<
ag1022
aV>
aV<
aVp
aV>
aV<
ag1023
aV>
aV<
aVp
aV>
aV8
aV.
aV<
aVi
aV>
aVcalls
p1567
aVon
p1568
aV<
ag1024
aV>
aVthe
p1569
ag1025
aVof
p1570
aVsri
p1571
aVlanka
p1572
aVto
p1573
ag1026
aVup
p1574
aVits
p1575
aVefforts
p1576
aVfor
p1577
aVthe
p1578
ag1028
aVof
p1579
aV<
ag1029
aV>
aV<
aVp
aV>
aVformer
p1580
ag1030
aVsoldiers
p1581
aVin
p1582
ag1032
aVwith
p1583
ag1033
aVunited
p1584
aVnations
p1585
aVagencies
p1586
aVand
p1587
aV<
aVi
aV>
aVurges
p1588
aV<
ag1038
aV>
aVthe
p1589
aV<
ag1039
aV>
aV<
aVp
aV>
ag1040
aVof
p1590
aVsri
p1591
aVlanka
p1592
aVto
p1593
aVtake
p1594
aVall
p1595
ag1041
aVmeasures
p1596
aVto
p1597
ag1043
aVthe
p1598
ag1044
aVand
p1599
ag1045
aV<
ag1046
aV>
aV<
aVp
aV>
ag1047
aVof
p1600
aVchildren
p1601
aVused
p1602
aVin
p1603
aVarmed
p1604
aVconflicts
p1605
aVand
p1606
aVto
p1607
ag1051
ag1052
aVmeasures
p1608
aVfor
p1609
aVtheir
p1610
aV<
ag1054
aV>
aV<
aVp
aV>
ag1055
aV,
ag1056
aVand
p1611
ag1057
ag1058
aVand
p1612
ag1059
aVinto
p1613
ag1060
aV,
aVin
p1614
ag1061
aV<
ag1062
aV>
aV<
aVp
aV>
aVthrough
p1615
ag1063
aVmeasures
p1616
aV,
aVtaking
p1617
aVinto
p1618
ag1065
aVthe
p1619
aVrights
p1620
aVand
p1621
aVthe
p1622
ag1067
aVneeds
p1623
aVand
p1624
aV<
ag1069
aV>
aV<
aVp
aV>
aVcapacities
p1625
aVof
p1626
aVgirls
p1627
aV;
aV<
ag1072
aV>
aV<
aVp
aV>
aV<
ag1073
aV>
aV<
aVp
aV>
aV9
aV.
aV<
aVi
aV>
aVurges
p1628
aV<
ag1075
aV>
aVthe
p1629
ag1076
aVof
p1630
aVsri
p1631
aVlanka
p1632
aVto
p1633
ag1077
aVstrengthening
p1634
aVits
p1635
aVactivities
p1636
aVto
p1637
ag1080
aV<
ag1081
aV>
aV<
aVp
aV>
aVthat
p1638
aVthere
p1639
aVis
p1640
aVno
p1641
ag1082
aVagainst
p1642
ag1083
aVminorities
p1643
aVin
p1644
aVthe
p1645
ag1085
aVof
p1646
aVthe
p1647
aVfull
p1648
ag1086
aVof
p1649
aV<
ag1087
aV>
aV<
aVp
aV>
ag1088
aVrights
p1650
aV;
aV<
ag1090
aV>
aV<
aVp
aV>
aV<
ag1091
aV>
aV<
aVp
aV>
ag1092
ag1093
aV3
aV<
ag1094
aV>
aV<
aVp
aV>
ag1095
aV.
aV<
aVi
aV>
aVwelcomes
p1651
aV<
ag1097
aV>
aVthe
p1652
ag1098
aVof
p1653
aVsri
p1654
aVlanka
p1655
aVwith
p1656
aVthe
p1657
ag1099
ag1100
aVprocedures
p1658
aVof
p1659
aVthe
p1660
aV<
ag1102
aV>
aV<
aVp
aV>
aVcouncil
p1661
aV,
aV<
aVi
aV>
aVencourages
p1662
aV<
ag1104
aV>
aVthe
p1663
ag1105
aVto
p1664
ag1106
aVits
p1665
ag1107
aVwith
p1666
aVthem
p1667
aVin
p1668
aVaddressing
p1669
aV<
ag1109
aV>
aV<
aVp
aV>
aVthe
p1670
ag1110
ag1111
aV;
aV<
ag1112
aV>
aV<
aVp
aV>
aV<
ag1113
aV>
aV<
aVp
aV>
ag1114
aV.
aV<
aVi
aV>
aVis
p1671
ag1115
aVconcerned
p1672
aV<
ag1117
aV>
aVby
p1673
aVviolations
p1674
aVof
p1675
ag1119
aVrights
p1676
aVand
p1677
ag1121
ag1122
aV<
ag1123
aV>
aV<
aVp
aV>
ag1124
aVcommitted
p1678
aVduring
p1679
aVthe
p1680
aVarmed
p1681
ag1126
aVin
p1682
aVsri
p1683
aVlanka
p1684
aVand
p1685
aVtheir
p1686
ag1127
aVon
p1687
aVthe
p1688
ag1128
aV<
ag1129
aV>
aV<
aVp
aV>
ag1130
ag1131
aVwomen
p1689
aV,
aVchildren
p1690
aVand
p1691
ag1133
aVgroups
p1692
aV;
aV<
ag1135
aV>
aV<
aVp
aV>
aV<
ag1136
aV>
aV<
aVp
aV>
ag1137
aV.
aV<
aVi
aV>
aVstresses
p1693
aV<
ag1139
aV>
aVthe
p1694
ag1140
aVof
p1695
aVcombating
p1696
ag1142
aVand
p1697
aVcalls
p1698
aVon
p1699
aVthe
p1700
ag1143
aVof
p1701
aVsri
p1702
aV<
ag1144
aV>
aV<
aVp
aV>
aVlanka
p1703
aVto
p1704
ag1145
aVall
p1705
aVallegations
p1706
aVand
p1707
ag1147
aVto
p1708
ag1148
aV,
aVin
p1709
ag1149
aVwith
p1710
ag1150
aV<
ag1151
aV>
aV<
aVp
aV>
aVstandards
p1711
aV,
aVperpetrators
p1712
aVof
p1713
aVviolations
p1714
aVof
p1715
ag1155
aVrights
p1716
aVand
p1717
aVof
p1718
ag1157
ag1158
ag1159
aV,
aV<
ag1160
aV>
aV<
aVp
aV>
aVincluding
p1719
ag1162
aVtaking
p1720
aV,
ag1163
aV,
aVenforced
p1721
aVdisappearances
p1722
aVand
p1723
ag1166
aV,
ag1167
aVor
p1724
aV<
ag1168
aV>
aV<
aVp
aV>
ag1169
aVexecutions
p1725
aV,
aVand
p1726
aVto
p1727
ag1171
aVits
p1728
aVefforts
p1729
aVto
p1730
aVfurther
p1731
ag1173
aVsuch
p1732
aVviolations
p1733
aV;
aV<
ag1175
aV>
aV<
aVp
aV>
ag1176
aV.
aV<
aVi
aV>
aVurges
p1734
aV<
ag1178
aV>
aVthe
p1735
ag1179
ag1180
aVto
p1736
ag1181
ag1182
aVin
p1737
aVsri
p1738
aVlanka
p1739
aVand
p1740
aVcalls
p1741
aV<
ag1183
aV>
aV<
aVp
aV>
aVon
p1742
aVthe
p1743
ag1184
aVof
p1744
aVsri
p1745
aVlanka
p1746
aVto
p1747
ag1185
aVan
p1748
ag1186
ag1187
aVof
p1749
ag1188
aV<
ag1189
aV>
aV<
aVp
aV>
ag1190
aV;
aV<
ag1191
aV>
aV<
aVp
aV>
ag1192
aV.
aV<
aVi
aV>
aVcalls
p1750
aVon
p1751
aV<
ag1193
aV>
aVthe
p1752
ag1194
aVof
p1753
aVsri
p1754
aVlanka
p1755
aVto
p1756
aVtake
p1757
aVmeasures
p1758
aVto
p1759
ag1196
aVfull
p1760
ag1197
aVfor
p1761
aVthe
p1762
aV<
ag1198
aV>
aV<
aVp
aV>
ag1199
aVto
p1763
ag1200
aVof
p1764
ag1201
aVand
p1765
ag1202
aVand
p1766
ag1203
ag1204
aVrights
p1767
aVdefenders
p1768
aV,
aVand
p1769
aV<
ag1207
aV>
aV<
aVp
aV>
ag1208
ag1209
aVallegations
p1770
aVof
p1771
aVattacks
p1772
aVon
p1773
aVjournalists
p1774
aV,
aVmedia
p1775
ag1214
aVand
p1776
ag1215
aV<
ag1216
aV>
aV<
aVp
aV>
aVrights
p1777
aVdefenders
p1778
aVand
p1779
ag1219
aVthose
p1780
ag1220
aV;
aV<
ag1221
aV>
aV<
aVp
aV>
ag1222
aV.
aV<
aVi
aV>
aVwelcomes
p1781
aV<
ag1224
aV>
aVthe
p1782
ag1225
aVof
p1783
aVthe
p1784
ag1226
ag1227
aVof
p1785
aVthe
p1786
aVunited
p1787
aVnations
p1788
aVto
p1789
aVsri
p1790
aVlanka
p1791
aVand
p1792
aV<
ag1230
aV>
aV<
aVp
aV>
aVencourages
p1793
aVthe
p1794
ag1232
aVof
p1795
ag1233
aVlanka
p1796
aVto
p1797
ag1234
aVwith
p1798
aVthe
p1799
aVcouncil
p1800
aVand
p1801
aVother
p1802
ag1235
aV<
ag1236
aV>
aV<
aVp
aV>
aVbodies
p1803
aVto
p1804
ag1238
aVthe
p1805
ag1239
aVrights
p1806
aVand
p1807
ag1241
ag1242
aV,
aVincluding
p1808
aVthrough
p1809
aVincreased
p1810
aV<
ag1245
aV>
aV<
aVp
aV>
ag1246
ag1247
aVof
p1811
aVthe
p1812
ag1248
aVof
p1813
aVthe
p1814
aVhigh
p1815
aVcommissioner
p1816
aVfor
p1817
ag1249
aVrights
p1818
aV;
aV<
ag1251
aV>
aV<
aVp
aV>
ag1252
aV.
aV<
aVi
aV>
aVrequests
p1819
aV<
ag1254
aV>
aVthe
p1820
aVunited
p1821
aVnations
p1822
ag1257
ag1258
aVfor
p1823
ag1259
aVrights
p1824
aVto
p1825
ag1261
aVto
p1826
aVthe
p1827
aV<
ag1262
aV>
aV<
aVp
aV>
aVcouncil
p1828
aV,
aVat
p1829
aVits
p1830
ag1263
ag1264
aV,
aVon
p1831
aVthe
p1832
ag1265
aVmade
p1833
aVtowards
p1834
aVthe
p1835
ag1266
aVof
p1836
aVthis
p1837
aV<
ag1267
aV>
aV<
aVp
aV>
ag1268
aV.
aV<
ag1269
aV>
aV<
aVp
aV>
aV-
aV-
aV-
aV-
aV-
aV<
ag1270
aV>
aV<
ag811
aV>
aV<
ag798
aV>
asba(ilda.document
document
p1838
(dp1839
g75
S'19thRegularSession_PS1.html'
p1840
sg5
g6
((lp1841
V,
aV''
p1842
aV/head
p1843
aV!
aV#
aV/i
p1844
aV&
aV)
aV(
aV*
aV/b
p1845
aV.
aV;
aV:
aV18/2
p1846
aV/p
p1847
aV``
p1848
aV19/1
p1849
aV4.01
p1850
aV/title
p1851
aV/html
p1852
aVa/hrc/19/2
p1853
aVpresident*
p1854
aVge.12-13231
p1855
aV//www.w3.org/tr/html4/loose.dtd
p1856
aV[
aV]
aV2.
p1857
aVtext/html
p1858
aVtransitional//en
p1859
aV-//w3c//dtd
p1860
aV/body
p1861
aVavailable.
p1862
aV1.
p1863
atRp1864
sg96
V<!DOCTYPE html PUBLIC "-//W3C//DTD HTML 4.01 Transitional//EN"\u000a"http://www.w3.org/TR/html4/loose.dtd">\u000a<html><head><title>United Nations</title>\u000a<meta http-equiv="Content-Type" content="text/html; charset=UTF-8">\u000a</head>\u000a<body><p>GE.12-13231 \u000a</p>\u000a<p><b>Human Rights Council \u000aNineteenth session \u000a</b></p>\u000a<p>Agenda item 2 \u000a<b>Annual report of the United Nations High Commissioner  \u000a</b></p>\u000a<p><b>for Human Rights and reports of the Office of the  \u000a</b></p>\u000a<p><b>High Commissioner and the Secretary-General  \u000a</b></p>\u000a<p><b>  Statement by the President* \u000a</b></p>\u000a<p><b>  PRST 19/1  \u000a</b></p>\u000a<p>At the 53rd meeting, held on 22 March 2012, the President of the Human Rights \u000aCouncil read out the following statement: \u000a</p>\u000a<p>&#8220;<i>The Human Rights Council</i>, \u000a</p>\u000a<p><i>Bearing in mind</i> President&#8217;s statement 18/2 of 20 September 2011, \u000a</p>\u000a<p>1.<i> Welcomes</i> the decision by the United Nations High Commissioner for \u000aHuman Rights that the launch of the annual report of the Office of the High \u000aCommissioner will be accompanied, annually, by meetings with the participation of \u000aStates Members of the United Nations and other stakeholders to provide information \u000aon, inter alia, the issues identified in the fourth paragraph of President&#8217;s statement \u000a18/2; \u000a</p>\u000a<p> 2.<i>  Also welcomes</i> the assurance of the High Commissioner to take into \u000aaccount the comments made during the meetings, and that the said comments will be \u000acompiled by the Office of the High Commissioner and made publicly available.&#8221; \u000a</p>\u000a<p>[Adopted without a vote.] \u000a</p>\u000a<p>    \u000a \u000a</p>\u000a<p> \u000a</p>\u000a<p>  \u000a *  The present statement will appear in the report of the Human Rights Council on its nineteenth session \u000a</p>\u000a<p>(A/HRC/19/2), chap. I.  \u000a</p>\u000a</body></html>
p1865
sg98
(lp1866
Vdoctype
p1867
aVhtml
p1868
aVpublic
p1869
aVhtml
p1870
aV''
p1871
aVhttp
p1872
aV''
p1873
aVhtml
p1874
aVhead
p1875
aVtitle
p1876
aVunite
p1877
aVnation
p1878
aVmeta
p1879
aVhttp-equiv=
p1880
aV''
p1881
aVcontent-type
p1882
aV''
p1883
aVcontent=
p1884
aV''
p1885
aVcharset=utf-8
p1886
aV''
p1887
aVbody
p1888
aVright
p1889
aVnineteenth
p1890
aVsession
p1891
aV/p
p1892
aVagenda
p1893
aVitem
p1894
aVannual
p1895
aVreport
p1896
aVunite
p1897
aVnation
p1898
aV/b
p1899
aV/p
p1900
aVright
p1901
aVreport
p1902
aVoffice
p1903
aV/b
p1904
aV/p
p1905
aVsecretary-general
p1906
aV/b
p1907
aV/p
p1908
aVstatement
p1909
aV/b
p1910
aV/p
p1911
aVprst
p1912
aV/b
p1913
aV/p
p1914
aV53rd
p1915
aVmeet
p1916
aVhold
p1917
aV22
p1918
aVmarch
p1919
aV2012
p1920
aVpresident
p1921
aVright
p1922
aVread
p1923
aVfollow
p1924
aVstatement
p1925
aV/p
p1926
aV8220
p1927
aVright
p1928
aV/p
p1929
aVbear
p1930
aVmind
p1931
aV/i
p1932
aVpresident
p1933
aV8217
p1934
aVstatement
p1935
aV20
p1936
aVseptember
p1937
aV2011
p1938
aV/p
p1939
aVwelcome
p1940
aV/i
p1941
aVdecision
p1942
aVunite
p1943
aVnation
p1944
aVhigh
p1945
aVcommissioner
p1946
aVright
p1947
aVlaunch
p1948
aVannual
p1949
aVreport
p1950
aVoffice
p1951
aVhigh
p1952
aVcommissioner
p1953
aVaccompany
p1954
aVannually
p1955
aVmeet
p1956
aVparticipation
p1957
aVstate
p1958
aVmember
p1959
aVunite
p1960
aVnation
p1961
aVstakeholder
p1962
aVprovide
p1963
aVinformation
p1964
aVinter
p1965
aValia
p1966
aVissue
p1967
aVidentify
p1968
aVfourth
p1969
aVparagraph
p1970
aVpresident
p1971
aV8217
p1972
aVstatement
p1973
aV18/2
p1974
aV/p
p1975
aVwelcome
p1976
aV/i
p1977
aVassurance
p1978
aVhigh
p1979
aVcommissioner
p1980
aVaccount
p1981
aVcomment
p1982
aVmeet
p1983
aVcomment
p1984
aVcompile
p1985
aVoffice
p1986
aVhigh
p1987
aVcommissioner
p1988
aVpublicly
p1989
aV8221
p1990
aV/p
p1991
aVadopt
p1992
aVvote
p1993
aV/p
p1994
aV/p
p1995
aV/p
p1996
aVpresent
p1997
aVstatement
p1998
aVappear
p1999
aVreport
p2000
aVright
p2001
aVcouncil
p2002
aVnineteenth
p2003
aVsession
p2004
aV/p
p2005
aVchap
p2006
aV/p
p2007
aS'human rights'
p2008
aS'human rights'
p2009
aS'human rights'
p2010
aS'human rights'
p2011
aS'human rights'
p2012
aS'human rights'
p2013
aS'united nations'
p2014
aS'united nations'
p2015
aS'united nations'
p2016
aS'united nations'
p2017
aS'human rights council'
p2018
aS'human rights council'
p2019
aS'human rights council'
p2020
aS'united nations high commissioner'
p2021
aS'united nations high commissioner'
p2022
asg426
(ilda.entities
entities
p2023
(dp2024
g69
(lp2025
(Vhuman rights
I6
tp2026
a(Vunited nations
I4
tp2027
a(Vhuman rights council
I3
tp2028
a(Vunited nations high commissioner
I2
tp2029
a(Vhuman rights council nineteenth
I0
tp2030
a(Vunited nations high commissioner for human rights
I0
tp2031
asg440
(lp2032
sg67
(lp2033
sg65
(lp2034
sbsg461
(lp2035
V<
aV!
ag1867
ag1868
ag1869
ag1848
ag1860
ag1870
ag1850
ag1859
ag1842
ag1871
ag1872
aV:
ag1856
ag1873
aV>
aV<
ag1874
aV>
aV<
ag1875
aV>
aV<
ag1876
aV>
aVunited
p2036
aVnations
p2037
aV<
ag1851
aV>
aV<
ag1879
ag1880
ag1881
ag1882
ag1883
ag1884
ag1885
ag1858
aV;
ag1886
ag1887
aV>
aV<
ag1843
aV>
aV<
ag1888
aV>
aV<
aVp
aV>
ag1855
aV<
ag1847
aV>
aV<
aVp
aV>
aV<
aVb
aV>
aVhuman
p2038
aVrights
p2039
aVcouncil
p2040
ag1890
ag1891
aV<
ag1845
aV>
aV<
ag1892
aV>
aV<
aVp
aV>
ag1893
ag1894
aV2
aV<
aVb
aV>
ag1895
ag1896
aVof
p2041
aVthe
p2042
aVunited
p2043
aVnations
p2044
aVhigh
p2045
aVcommissioner
p2046
aV<
ag1899
aV>
aV<
ag1900
aV>
aV<
aVp
aV>
aV<
aVb
aV>
aVfor
p2047
aVhuman
p2048
aVrights
p2049
aVand
p2050
aVreports
p2051
aVof
p2052
aVthe
p2053
ag1903
aVof
p2054
aVthe
p2055
aV<
ag1904
aV>
aV<
ag1905
aV>
aV<
aVp
aV>
aV<
aVb
aV>
aVhigh
p2056
aVcommissioner
p2057
aVand
p2058
aVthe
p2059
ag1906
aV<
ag1907
aV>
aV<
ag1908
aV>
aV<
aVp
aV>
aV<
aVb
aV>
ag1909
aVby
p2060
aVthe
p2061
ag1854
aV<
ag1910
aV>
aV<
ag1911
aV>
aV<
aVp
aV>
aV<
aVb
aV>
ag1912
ag1849
aV<
ag1913
aV>
aV<
ag1914
aV>
aV<
aVp
aV>
aVat
p2062
aVthe
p2063
ag1915
aVmeeting
p2064
aV,
aVheld
p2065
aVon
p2066
ag1918
ag1919
ag1920
aV,
aVthe
p2067
ag1921
aVof
p2068
aVthe
p2069
aVhuman
p2070
aVrights
p2071
aVcouncil
p2072
ag1923
aVout
p2073
aVthe
p2074
aVfollowing
p2075
ag1925
aV:
aV<
ag1926
aV>
aV<
aVp
aV>
aV&
aV#
ag1927
aV;
aV<
aVi
aV>
aVthe
p2076
aVhuman
p2077
aVrights
p2078
aVcouncil
p2079
aV<
ag1844
aV>
aV,
aV<
ag1929
aV>
aV<
aVp
aV>
aV<
aVi
aV>
aVbearing
p2080
aVin
p2081
ag1931
aV<
ag1932
aV>
ag1933
aV&
aV#
ag1934
aV;
aVs
ag1935
ag1846
aVof
p2082
ag1936
ag1937
ag1938
aV,
aV<
ag1939
aV>
aV<
aVp
aV>
ag1863
aV<
aVi
aV>
aVwelcomes
p2083
aV<
ag1941
aV>
aVthe
p2084
ag1942
aVby
p2085
aVthe
p2086
aVunited
p2087
aVnations
p2088
ag1945
ag1946
aVfor
p2089
aVhuman
p2090
aVrights
p2091
aVthat
p2092
aVthe
p2093
ag1948
aVof
p2094
aVthe
p2095
ag1949
ag1950
aVof
p2096
aVthe
p2097
ag1951
aVof
p2098
aVthe
p2099
ag1952
ag1953
aVwill
p2100
aVbe
p2101
aVaccompanied
p2102
aV,
ag1955
aV,
aVby
p2103
aVmeetings
p2104
aVwith
p2105
aVthe
p2106
ag1957
aVof
p2107
aVstates
p2108
aVmembers
p2109
aVof
p2110
aVthe
p2111
aVunited
p2112
aVnations
p2113
aVand
p2114
aVother
p2115
aVstakeholders
p2116
aVto
p2117
ag1963
ag1964
aVon
p2118
aV,
ag1965
ag1966
aV,
aVthe
p2119
aVissues
p2120
aVidentified
p2121
aVin
p2122
aVthe
p2123
ag1969
ag1970
aVof
p2124
ag1971
aV&
aV#
ag1972
aV;
aVs
ag1973
ag1974
aV;
aV<
ag1975
aV>
aV<
aVp
aV>
ag1857
aV<
aVi
aV>
aValso
p2125
aVwelcomes
p2126
aV<
ag1977
aV>
aVthe
p2127
ag1978
aVof
p2128
aVthe
p2129
ag1979
ag1980
aVto
p2130
aVtake
p2131
aVinto
p2132
ag1981
aVthe
p2133
aVcomments
p2134
aVmade
p2135
aVduring
p2136
aVthe
p2137
aVmeetings
p2138
aV,
aVand
p2139
aVthat
p2140
aVthe
p2141
aVsaid
p2142
aVcomments
p2143
aVwill
p2144
aVbe
p2145
aVcompiled
p2146
aVby
p2147
aVthe
p2148
ag1986
aVof
p2149
aVthe
p2150
ag1987
ag1988
aVand
p2151
aVmade
p2152
ag1989
ag1862
aV&
aV#
ag1990
aV;
aV<
ag1991
aV>
aV<
aVp
aV>
aV[
aVadopted
p2153
aVwithout
p2154
aVa
ag1993
aV.
aV]
aV<
ag1994
aV>
aV<
aVp
aV>
aV<
ag1995
aV>
aV<
aVp
aV>
aV<
ag1996
aV>
aV<
aVp
aV>
aV*
aVthe
p2155
ag1997
ag1998
aVwill
p2156
ag1999
aVin
p2157
aVthe
p2158
ag2000
aVof
p2159
aVthe
p2160
aVhuman
p2161
aVrights
p2162
ag2002
aVon
p2163
aVits
p2164
ag2003
ag2004
aV<
ag2005
aV>
aV<
aVp
aV>
aV(
ag1853
aV)
aV,
ag2006
aV.
aVi
aV.
aV<
ag2007
aV>
aV<
ag1861
aV>
aV<
ag1852
aV>
asbasS'numberTopics'
p2165
NsS'corpus'
p2166
(lp2167
sS'specialChars'
p2168
g6
((lp2169
V,
aV!
aV#
aV"
aV%
aV$
aV'
aV&
aV
aV(
aV*
aV\u20ac
aV/
aV.
aV
aV;
aV:
aV?
aV@
aV[
aV]
aV\u005c
aV_
aV^
aV`
aV)
aV{
aV}
aV~
atRp2170
s.